
kernel/kernel:     file format elf64-littleriscv


Disassembly of section .text:

0000000080000000 <_entry>:
    80000000:	0000a117          	auipc	sp,0xa
    80000004:	04013103          	ld	sp,64(sp) # 8000a040 <_GLOBAL_OFFSET_TABLE_+0x8>
    80000008:	6505                	lui	a0,0x1
    8000000a:	f14025f3          	csrr	a1,mhartid
    8000000e:	0585                	addi	a1,a1,1
    80000010:	02b50533          	mul	a0,a0,a1
    80000014:	912a                	add	sp,sp,a0
    80000016:	070000ef          	jal	ra,80000086 <start>

000000008000001a <junk>:
    8000001a:	a001                	j	8000001a <junk>

000000008000001c <timerinit>:
// which arrive at timervec in kernelvec.S,
// which turns them into software interrupts for
// devintr() in trap.c.
void
timerinit()
{
    8000001c:	1141                	addi	sp,sp,-16
    8000001e:	e422                	sd	s0,8(sp)
    80000020:	0800                	addi	s0,sp,16
// which hart (core) is this?
static inline uint64
r_mhartid()
{
  uint64 x;
  asm volatile("csrr %0, mhartid" : "=r" (x) );
    80000022:	f14027f3          	csrr	a5,mhartid
  // each CPU has a separate source of timer interrupts.
  int id = r_mhartid();

  // ask the CLINT for a timer interrupt.
  int interval = 1000000; // cycles; about 1/10th second in qemu.
  *(uint64*)CLINT_MTIMECMP(id) = *(uint64*)CLINT_MTIME + interval;
    80000026:	0037969b          	slliw	a3,a5,0x3
    8000002a:	02004737          	lui	a4,0x2004
    8000002e:	96ba                	add	a3,a3,a4
    80000030:	0200c737          	lui	a4,0x200c
    80000034:	ff873603          	ld	a2,-8(a4) # 200bff8 <_entry-0x7dff4008>
    80000038:	000f4737          	lui	a4,0xf4
    8000003c:	24070713          	addi	a4,a4,576 # f4240 <_entry-0x7ff0bdc0>
    80000040:	963a                	add	a2,a2,a4
    80000042:	e290                	sd	a2,0(a3)

  // prepare information in scratch[] for timervec.
  // scratch[0..3] : space for timervec to save registers.
  // scratch[4] : address of CLINT MTIMECMP register.
  // scratch[5] : desired interval (in cycles) between timer interrupts.
  uint64 *scratch = &mscratch0[32 * id];
    80000044:	0057979b          	slliw	a5,a5,0x5
    80000048:	078e                	slli	a5,a5,0x3
    8000004a:	0000b617          	auipc	a2,0xb
    8000004e:	fb660613          	addi	a2,a2,-74 # 8000b000 <mscratch0>
    80000052:	97b2                	add	a5,a5,a2
  scratch[4] = CLINT_MTIMECMP(id);
    80000054:	f394                	sd	a3,32(a5)
  scratch[5] = interval;
    80000056:	f798                	sd	a4,40(a5)
}

static inline void 
w_mscratch(uint64 x)
{
  asm volatile("csrw mscratch, %0" : : "r" (x));
    80000058:	34079073          	csrw	mscratch,a5
  asm volatile("csrw mtvec, %0" : : "r" (x));
    8000005c:	00006797          	auipc	a5,0x6
    80000060:	3e478793          	addi	a5,a5,996 # 80006440 <timervec>
    80000064:	30579073          	csrw	mtvec,a5
  asm volatile("csrr %0, mstatus" : "=r" (x) );
    80000068:	300027f3          	csrr	a5,mstatus

  // set the machine-mode trap handler.
  w_mtvec((uint64)timervec);

  // enable machine-mode interrupts.
  w_mstatus(r_mstatus() | MSTATUS_MIE);
    8000006c:	0087e793          	ori	a5,a5,8
  asm volatile("csrw mstatus, %0" : : "r" (x));
    80000070:	30079073          	csrw	mstatus,a5
  asm volatile("csrr %0, mie" : "=r" (x) );
    80000074:	304027f3          	csrr	a5,mie

  // enable machine-mode timer interrupts.
  w_mie(r_mie() | MIE_MTIE);
    80000078:	0807e793          	ori	a5,a5,128
  asm volatile("csrw mie, %0" : : "r" (x));
    8000007c:	30479073          	csrw	mie,a5
}
    80000080:	6422                	ld	s0,8(sp)
    80000082:	0141                	addi	sp,sp,16
    80000084:	8082                	ret

0000000080000086 <start>:
{
    80000086:	1141                	addi	sp,sp,-16
    80000088:	e406                	sd	ra,8(sp)
    8000008a:	e022                	sd	s0,0(sp)
    8000008c:	0800                	addi	s0,sp,16
  asm volatile("csrr %0, mstatus" : "=r" (x) );
    8000008e:	300027f3          	csrr	a5,mstatus
  x &= ~MSTATUS_MPP_MASK;
    80000092:	7779                	lui	a4,0xffffe
    80000094:	7ff70713          	addi	a4,a4,2047 # ffffffffffffe7ff <end+0xffffffff7ffd0753>
    80000098:	8ff9                	and	a5,a5,a4
  x |= MSTATUS_MPP_S;
    8000009a:	6705                	lui	a4,0x1
    8000009c:	80070713          	addi	a4,a4,-2048 # 800 <_entry-0x7ffff800>
    800000a0:	8fd9                	or	a5,a5,a4
  asm volatile("csrw mstatus, %0" : : "r" (x));
    800000a2:	30079073          	csrw	mstatus,a5
  asm volatile("csrw mepc, %0" : : "r" (x));
    800000a6:	00001797          	auipc	a5,0x1
    800000aa:	2c278793          	addi	a5,a5,706 # 80001368 <main>
    800000ae:	34179073          	csrw	mepc,a5
  asm volatile("csrw satp, %0" : : "r" (x));
    800000b2:	4781                	li	a5,0
    800000b4:	18079073          	csrw	satp,a5
  asm volatile("csrw medeleg, %0" : : "r" (x));
    800000b8:	67c1                	lui	a5,0x10
    800000ba:	17fd                	addi	a5,a5,-1
    800000bc:	30279073          	csrw	medeleg,a5
  asm volatile("csrw mideleg, %0" : : "r" (x));
    800000c0:	30379073          	csrw	mideleg,a5
  asm volatile("csrr %0, sie" : "=r" (x) );
    800000c4:	104027f3          	csrr	a5,sie
  w_sie(r_sie() | SIE_SEIE | SIE_STIE | SIE_SSIE);
    800000c8:	2227e793          	ori	a5,a5,546
  asm volatile("csrw sie, %0" : : "r" (x));
    800000cc:	10479073          	csrw	sie,a5
  timerinit();
    800000d0:	00000097          	auipc	ra,0x0
    800000d4:	f4c080e7          	jalr	-180(ra) # 8000001c <timerinit>
  asm volatile("csrr %0, mhartid" : "=r" (x) );
    800000d8:	f14027f3          	csrr	a5,mhartid
  w_tp(id);
    800000dc:	2781                	sext.w	a5,a5
}

static inline void 
w_tp(uint64 x)
{
  asm volatile("mv tp, %0" : : "r" (x));
    800000de:	823e                	mv	tp,a5
  asm volatile("mret");
    800000e0:	30200073          	mret
}
    800000e4:	60a2                	ld	ra,8(sp)
    800000e6:	6402                	ld	s0,0(sp)
    800000e8:	0141                	addi	sp,sp,16
    800000ea:	8082                	ret

00000000800000ec <consoleread>:
// user_dist indicates whether dst is a user
// or kernel address.
//
int
consoleread(struct file *f, int user_dst, uint64 dst, int n)
{
    800000ec:	7159                	addi	sp,sp,-112
    800000ee:	f486                	sd	ra,104(sp)
    800000f0:	f0a2                	sd	s0,96(sp)
    800000f2:	eca6                	sd	s1,88(sp)
    800000f4:	e8ca                	sd	s2,80(sp)
    800000f6:	e4ce                	sd	s3,72(sp)
    800000f8:	e0d2                	sd	s4,64(sp)
    800000fa:	fc56                	sd	s5,56(sp)
    800000fc:	f85a                	sd	s6,48(sp)
    800000fe:	f45e                	sd	s7,40(sp)
    80000100:	f062                	sd	s8,32(sp)
    80000102:	ec66                	sd	s9,24(sp)
    80000104:	e86a                	sd	s10,16(sp)
    80000106:	1880                	addi	s0,sp,112
    80000108:	84aa                	mv	s1,a0
    8000010a:	8b2e                	mv	s6,a1
    8000010c:	8ab2                	mv	s5,a2
    8000010e:	89b6                	mv	s3,a3
  uint target;
  int c;
  char cbuf;

  target = n;
    80000110:	00068b9b          	sext.w	s7,a3
  struct cons_t* cons = &consoles[f->minor-1];
    80000114:	02651a03          	lh	s4,38(a0) # 1026 <_entry-0x7fffefda>
    80000118:	3a7d                	addiw	s4,s4,-1
    8000011a:	001a1d13          	slli	s10,s4,0x1
    8000011e:	9d52                	add	s10,s10,s4
    80000120:	0d1a                	slli	s10,s10,0x6
    80000122:	00013917          	auipc	s2,0x13
    80000126:	6de90913          	addi	s2,s2,1758 # 80013800 <consoles>
    8000012a:	996a                	add	s2,s2,s10
  acquire(&console_number_lock);
    8000012c:	00014517          	auipc	a0,0x14
    80000130:	91450513          	addi	a0,a0,-1772 # 80013a40 <console_number_lock>
    80000134:	00001097          	auipc	ra,0x1
    80000138:	b54080e7          	jalr	-1196(ra) # 80000c88 <acquire>
  while(console_number != f->minor - 1){
    8000013c:	02649783          	lh	a5,38(s1)
    80000140:	37fd                	addiw	a5,a5,-1
    80000142:	0002e717          	auipc	a4,0x2e
    80000146:	f2672703          	lw	a4,-218(a4) # 8002e068 <console_number>
    8000014a:	02e78763          	beq	a5,a4,80000178 <consoleread+0x8c>
    sleep(cons, &console_number_lock);
    8000014e:	00014c97          	auipc	s9,0x14
    80000152:	8f2c8c93          	addi	s9,s9,-1806 # 80013a40 <console_number_lock>
  while(console_number != f->minor - 1){
    80000156:	0002ec17          	auipc	s8,0x2e
    8000015a:	f12c0c13          	addi	s8,s8,-238 # 8002e068 <console_number>
    sleep(cons, &console_number_lock);
    8000015e:	85e6                	mv	a1,s9
    80000160:	854a                	mv	a0,s2
    80000162:	00002097          	auipc	ra,0x2
    80000166:	668080e7          	jalr	1640(ra) # 800027ca <sleep>
  while(console_number != f->minor - 1){
    8000016a:	02649783          	lh	a5,38(s1)
    8000016e:	37fd                	addiw	a5,a5,-1
    80000170:	000c2703          	lw	a4,0(s8)
    80000174:	fee795e3          	bne	a5,a4,8000015e <consoleread+0x72>
  }
  release(&console_number_lock);
    80000178:	00014517          	auipc	a0,0x14
    8000017c:	8c850513          	addi	a0,a0,-1848 # 80013a40 <console_number_lock>
    80000180:	00001097          	auipc	ra,0x1
    80000184:	d54080e7          	jalr	-684(ra) # 80000ed4 <release>
  acquire(&cons->lock);
    80000188:	854a                	mv	a0,s2
    8000018a:	00001097          	auipc	ra,0x1
    8000018e:	afe080e7          	jalr	-1282(ra) # 80000c88 <acquire>
    while(cons->r == cons->w){
      if(myproc()->killed){
        release(&cons->lock);
        return -1;
      }
      sleep(&cons->r, &cons->lock);
    80000192:	00013797          	auipc	a5,0x13
    80000196:	71e78793          	addi	a5,a5,1822 # 800138b0 <consoles+0xb0>
    8000019a:	9d3e                	add	s10,s10,a5
    while(cons->r == cons->w){
    8000019c:	001a1493          	slli	s1,s4,0x1
    800001a0:	94d2                	add	s1,s1,s4
    800001a2:	00649793          	slli	a5,s1,0x6
    800001a6:	00013497          	auipc	s1,0x13
    800001aa:	65a48493          	addi	s1,s1,1626 # 80013800 <consoles>
    800001ae:	94be                	add	s1,s1,a5
  while(n > 0){
    800001b0:	07305b63          	blez	s3,80000226 <consoleread+0x13a>
    while(cons->r == cons->w){
    800001b4:	0b04a783          	lw	a5,176(s1)
    800001b8:	0b44a703          	lw	a4,180(s1)
    800001bc:	02f71463          	bne	a4,a5,800001e4 <consoleread+0xf8>
      if(myproc()->killed){
    800001c0:	00002097          	auipc	ra,0x2
    800001c4:	ddc080e7          	jalr	-548(ra) # 80001f9c <myproc>
    800001c8:	453c                	lw	a5,72(a0)
    800001ca:	e7b5                	bnez	a5,80000236 <consoleread+0x14a>
      sleep(&cons->r, &cons->lock);
    800001cc:	85ca                	mv	a1,s2
    800001ce:	856a                	mv	a0,s10
    800001d0:	00002097          	auipc	ra,0x2
    800001d4:	5fa080e7          	jalr	1530(ra) # 800027ca <sleep>
    while(cons->r == cons->w){
    800001d8:	0b04a783          	lw	a5,176(s1)
    800001dc:	0b44a703          	lw	a4,180(s1)
    800001e0:	fef700e3          	beq	a4,a5,800001c0 <consoleread+0xd4>
    }

    c = cons->buf[cons->r++ % INPUT_BUF];
    800001e4:	0017871b          	addiw	a4,a5,1
    800001e8:	0ae4a823          	sw	a4,176(s1)
    800001ec:	07f7f713          	andi	a4,a5,127
    800001f0:	9726                	add	a4,a4,s1
    800001f2:	03074703          	lbu	a4,48(a4)
    800001f6:	00070c1b          	sext.w	s8,a4

    if(c == C('D')){  // end-of-file
    800001fa:	4691                	li	a3,4
    800001fc:	06dc0163          	beq	s8,a3,8000025e <consoleread+0x172>
      }
      break;
    }

    // copy the input byte to the user-space buffer.
    cbuf = c;
    80000200:	f8e40fa3          	sb	a4,-97(s0)
    if(either_copyout(user_dst, dst, &cbuf, 1) == -1)
    80000204:	4685                	li	a3,1
    80000206:	f9f40613          	addi	a2,s0,-97
    8000020a:	85d6                	mv	a1,s5
    8000020c:	855a                	mv	a0,s6
    8000020e:	00003097          	auipc	ra,0x3
    80000212:	81e080e7          	jalr	-2018(ra) # 80002a2c <either_copyout>
    80000216:	57fd                	li	a5,-1
    80000218:	00f50763          	beq	a0,a5,80000226 <consoleread+0x13a>
      break;

    dst++;
    8000021c:	0a85                	addi	s5,s5,1
    --n;
    8000021e:	39fd                	addiw	s3,s3,-1

    if(c == '\n'){
    80000220:	47a9                	li	a5,10
    80000222:	f8fc17e3          	bne	s8,a5,800001b0 <consoleread+0xc4>
      // a whole line has arrived, return to
      // the user-level read().
      break;
    }
  }
  release(&cons->lock);
    80000226:	854a                	mv	a0,s2
    80000228:	00001097          	auipc	ra,0x1
    8000022c:	cac080e7          	jalr	-852(ra) # 80000ed4 <release>

  return target - n;
    80000230:	413b853b          	subw	a0,s7,s3
    80000234:	a039                	j	80000242 <consoleread+0x156>
        release(&cons->lock);
    80000236:	854a                	mv	a0,s2
    80000238:	00001097          	auipc	ra,0x1
    8000023c:	c9c080e7          	jalr	-868(ra) # 80000ed4 <release>
        return -1;
    80000240:	557d                	li	a0,-1
}
    80000242:	70a6                	ld	ra,104(sp)
    80000244:	7406                	ld	s0,96(sp)
    80000246:	64e6                	ld	s1,88(sp)
    80000248:	6946                	ld	s2,80(sp)
    8000024a:	69a6                	ld	s3,72(sp)
    8000024c:	6a06                	ld	s4,64(sp)
    8000024e:	7ae2                	ld	s5,56(sp)
    80000250:	7b42                	ld	s6,48(sp)
    80000252:	7ba2                	ld	s7,40(sp)
    80000254:	7c02                	ld	s8,32(sp)
    80000256:	6ce2                	ld	s9,24(sp)
    80000258:	6d42                	ld	s10,16(sp)
    8000025a:	6165                	addi	sp,sp,112
    8000025c:	8082                	ret
      if(n < target){
    8000025e:	0009871b          	sext.w	a4,s3
    80000262:	fd7772e3          	bgeu	a4,s7,80000226 <consoleread+0x13a>
        cons->r--;
    80000266:	001a1713          	slli	a4,s4,0x1
    8000026a:	9752                	add	a4,a4,s4
    8000026c:	071a                	slli	a4,a4,0x6
    8000026e:	00013697          	auipc	a3,0x13
    80000272:	59268693          	addi	a3,a3,1426 # 80013800 <consoles>
    80000276:	9736                	add	a4,a4,a3
    80000278:	0af72823          	sw	a5,176(a4)
    8000027c:	b76d                	j	80000226 <consoleread+0x13a>

000000008000027e <consputc>:
  if(panicked){
    8000027e:	0002e797          	auipc	a5,0x2e
    80000282:	dee7a783          	lw	a5,-530(a5) # 8002e06c <panicked>
    80000286:	c391                	beqz	a5,8000028a <consputc+0xc>
    for(;;)
    80000288:	a001                	j	80000288 <consputc+0xa>
{
    8000028a:	1141                	addi	sp,sp,-16
    8000028c:	e406                	sd	ra,8(sp)
    8000028e:	e022                	sd	s0,0(sp)
    80000290:	0800                	addi	s0,sp,16
  if(c == BACKSPACE){
    80000292:	10000793          	li	a5,256
    80000296:	00f50a63          	beq	a0,a5,800002aa <consputc+0x2c>
    uartputc(c);
    8000029a:	00000097          	auipc	ra,0x0
    8000029e:	7ac080e7          	jalr	1964(ra) # 80000a46 <uartputc>
}
    800002a2:	60a2                	ld	ra,8(sp)
    800002a4:	6402                	ld	s0,0(sp)
    800002a6:	0141                	addi	sp,sp,16
    800002a8:	8082                	ret
    uartputc('\b'); uartputc(' '); uartputc('\b');
    800002aa:	4521                	li	a0,8
    800002ac:	00000097          	auipc	ra,0x0
    800002b0:	79a080e7          	jalr	1946(ra) # 80000a46 <uartputc>
    800002b4:	02000513          	li	a0,32
    800002b8:	00000097          	auipc	ra,0x0
    800002bc:	78e080e7          	jalr	1934(ra) # 80000a46 <uartputc>
    800002c0:	4521                	li	a0,8
    800002c2:	00000097          	auipc	ra,0x0
    800002c6:	784080e7          	jalr	1924(ra) # 80000a46 <uartputc>
    800002ca:	bfe1                	j	800002a2 <consputc+0x24>

00000000800002cc <consolewrite>:
{
    800002cc:	711d                	addi	sp,sp,-96
    800002ce:	ec86                	sd	ra,88(sp)
    800002d0:	e8a2                	sd	s0,80(sp)
    800002d2:	e4a6                	sd	s1,72(sp)
    800002d4:	e0ca                	sd	s2,64(sp)
    800002d6:	fc4e                	sd	s3,56(sp)
    800002d8:	f852                	sd	s4,48(sp)
    800002da:	f456                	sd	s5,40(sp)
    800002dc:	f05a                	sd	s6,32(sp)
    800002de:	ec5e                	sd	s7,24(sp)
    800002e0:	1080                	addi	s0,sp,96
    800002e2:	89aa                	mv	s3,a0
    800002e4:	8a2e                	mv	s4,a1
    800002e6:	84b2                	mv	s1,a2
    800002e8:	8ab6                	mv	s5,a3
  struct cons_t* cons = &consoles[f->minor-1];
    800002ea:	02651783          	lh	a5,38(a0)
    800002ee:	37fd                	addiw	a5,a5,-1
    800002f0:	00179913          	slli	s2,a5,0x1
    800002f4:	993e                	add	s2,s2,a5
    800002f6:	00691793          	slli	a5,s2,0x6
    800002fa:	00013917          	auipc	s2,0x13
    800002fe:	50690913          	addi	s2,s2,1286 # 80013800 <consoles>
    80000302:	993e                	add	s2,s2,a5
  acquire(&console_number_lock);
    80000304:	00013517          	auipc	a0,0x13
    80000308:	73c50513          	addi	a0,a0,1852 # 80013a40 <console_number_lock>
    8000030c:	00001097          	auipc	ra,0x1
    80000310:	97c080e7          	jalr	-1668(ra) # 80000c88 <acquire>
  while(console_number != f->minor - 1){
    80000314:	02699783          	lh	a5,38(s3)
    80000318:	37fd                	addiw	a5,a5,-1
    8000031a:	0002e717          	auipc	a4,0x2e
    8000031e:	d4e72703          	lw	a4,-690(a4) # 8002e068 <console_number>
    80000322:	02e78763          	beq	a5,a4,80000350 <consolewrite+0x84>
    sleep(cons, &console_number_lock);
    80000326:	00013b97          	auipc	s7,0x13
    8000032a:	71ab8b93          	addi	s7,s7,1818 # 80013a40 <console_number_lock>
  while(console_number != f->minor - 1){
    8000032e:	0002eb17          	auipc	s6,0x2e
    80000332:	d3ab0b13          	addi	s6,s6,-710 # 8002e068 <console_number>
    sleep(cons, &console_number_lock);
    80000336:	85de                	mv	a1,s7
    80000338:	854a                	mv	a0,s2
    8000033a:	00002097          	auipc	ra,0x2
    8000033e:	490080e7          	jalr	1168(ra) # 800027ca <sleep>
  while(console_number != f->minor - 1){
    80000342:	02699783          	lh	a5,38(s3)
    80000346:	37fd                	addiw	a5,a5,-1
    80000348:	000b2703          	lw	a4,0(s6)
    8000034c:	fee795e3          	bne	a5,a4,80000336 <consolewrite+0x6a>
  release(&console_number_lock);
    80000350:	00013517          	auipc	a0,0x13
    80000354:	6f050513          	addi	a0,a0,1776 # 80013a40 <console_number_lock>
    80000358:	00001097          	auipc	ra,0x1
    8000035c:	b7c080e7          	jalr	-1156(ra) # 80000ed4 <release>
  acquire(&cons->lock);
    80000360:	854a                	mv	a0,s2
    80000362:	00001097          	auipc	ra,0x1
    80000366:	926080e7          	jalr	-1754(ra) # 80000c88 <acquire>
  for(i = 0; i < n; i++){
    8000036a:	03505e63          	blez	s5,800003a6 <consolewrite+0xda>
    8000036e:	00148993          	addi	s3,s1,1
    80000372:	fffa879b          	addiw	a5,s5,-1
    80000376:	1782                	slli	a5,a5,0x20
    80000378:	9381                	srli	a5,a5,0x20
    8000037a:	99be                	add	s3,s3,a5
    if(either_copyin(&c, user_src, src+i, 1) == -1)
    8000037c:	5b7d                	li	s6,-1
    8000037e:	4685                	li	a3,1
    80000380:	8626                	mv	a2,s1
    80000382:	85d2                	mv	a1,s4
    80000384:	faf40513          	addi	a0,s0,-81
    80000388:	00002097          	auipc	ra,0x2
    8000038c:	6fa080e7          	jalr	1786(ra) # 80002a82 <either_copyin>
    80000390:	01650b63          	beq	a0,s6,800003a6 <consolewrite+0xda>
    consputc(c);
    80000394:	faf44503          	lbu	a0,-81(s0)
    80000398:	00000097          	auipc	ra,0x0
    8000039c:	ee6080e7          	jalr	-282(ra) # 8000027e <consputc>
  for(i = 0; i < n; i++){
    800003a0:	0485                	addi	s1,s1,1
    800003a2:	fd349ee3          	bne	s1,s3,8000037e <consolewrite+0xb2>
  release(&cons->lock);
    800003a6:	854a                	mv	a0,s2
    800003a8:	00001097          	auipc	ra,0x1
    800003ac:	b2c080e7          	jalr	-1236(ra) # 80000ed4 <release>
}
    800003b0:	8556                	mv	a0,s5
    800003b2:	60e6                	ld	ra,88(sp)
    800003b4:	6446                	ld	s0,80(sp)
    800003b6:	64a6                	ld	s1,72(sp)
    800003b8:	6906                	ld	s2,64(sp)
    800003ba:	79e2                	ld	s3,56(sp)
    800003bc:	7a42                	ld	s4,48(sp)
    800003be:	7aa2                	ld	s5,40(sp)
    800003c0:	7b02                	ld	s6,32(sp)
    800003c2:	6be2                	ld	s7,24(sp)
    800003c4:	6125                	addi	sp,sp,96
    800003c6:	8082                	ret

00000000800003c8 <consoleintr>:
// do erase/kill processing, append to cons->buf,
// wake up consoleread() if a whole line has arrived.
//
void
consoleintr(int c)
{
    800003c8:	7179                	addi	sp,sp,-48
    800003ca:	f406                	sd	ra,40(sp)
    800003cc:	f022                	sd	s0,32(sp)
    800003ce:	ec26                	sd	s1,24(sp)
    800003d0:	e84a                	sd	s2,16(sp)
    800003d2:	e44e                	sd	s3,8(sp)
    800003d4:	e052                	sd	s4,0(sp)
    800003d6:	1800                	addi	s0,sp,48
    800003d8:	84aa                	mv	s1,a0
  acquire(&cons->lock);
    800003da:	0002e517          	auipc	a0,0x2e
    800003de:	c8653503          	ld	a0,-890(a0) # 8002e060 <cons>
    800003e2:	00001097          	auipc	ra,0x1
    800003e6:	8a6080e7          	jalr	-1882(ra) # 80000c88 <acquire>

  switch(c){
    800003ea:	47d5                	li	a5,21
    800003ec:	0297c763          	blt	a5,s1,8000041a <consoleintr+0x52>
    800003f0:	479d                	li	a5,7
    800003f2:	1c97da63          	bge	a5,s1,800005c6 <consoleintr+0x1fe>
    800003f6:	ff84879b          	addiw	a5,s1,-8
    800003fa:	0007869b          	sext.w	a3,a5
    800003fe:	4735                	li	a4,13
    80000400:	1cd76363          	bltu	a4,a3,800005c6 <consoleintr+0x1fe>
    80000404:	1782                	slli	a5,a5,0x20
    80000406:	9381                	srli	a5,a5,0x20
    80000408:	078a                	slli	a5,a5,0x2
    8000040a:	00009717          	auipc	a4,0x9
    8000040e:	ae670713          	addi	a4,a4,-1306 # 80008ef0 <userret+0xe60>
    80000412:	97ba                	add	a5,a5,a4
    80000414:	439c                	lw	a5,0(a5)
    80000416:	97ba                	add	a5,a5,a4
    80000418:	8782                	jr	a5
    8000041a:	07f00793          	li	a5,127
    8000041e:	18f48063          	beq	s1,a5,8000059e <consoleintr+0x1d6>
      cons->e--;
      consputc(BACKSPACE);
    }
    break;
  default:
    if(c != 0 && cons->e-cons->r < INPUT_BUF){
    80000422:	0002e717          	auipc	a4,0x2e
    80000426:	c3e73703          	ld	a4,-962(a4) # 8002e060 <cons>
    8000042a:	0b872783          	lw	a5,184(a4)
    8000042e:	0b072703          	lw	a4,176(a4)
    80000432:	9f99                	subw	a5,a5,a4
    80000434:	07f00713          	li	a4,127
    80000438:	0af76563          	bltu	a4,a5,800004e2 <consoleintr+0x11a>
      c = (c == '\r') ? '\n' : c;
    8000043c:	47b5                	li	a5,13
    8000043e:	18f48663          	beq	s1,a5,800005ca <consoleintr+0x202>

      // echo back to the user.
      consputc(c);
    80000442:	8526                	mv	a0,s1
    80000444:	00000097          	auipc	ra,0x0
    80000448:	e3a080e7          	jalr	-454(ra) # 8000027e <consputc>

      // store for consumption by consoleread().
      cons->buf[cons->e++ % INPUT_BUF] = c;
    8000044c:	0002e517          	auipc	a0,0x2e
    80000450:	c1453503          	ld	a0,-1004(a0) # 8002e060 <cons>
    80000454:	0b852783          	lw	a5,184(a0)
    80000458:	0017871b          	addiw	a4,a5,1
    8000045c:	0007069b          	sext.w	a3,a4
    80000460:	0ae52c23          	sw	a4,184(a0)
    80000464:	07f7f793          	andi	a5,a5,127
    80000468:	97aa                	add	a5,a5,a0
    8000046a:	02978823          	sb	s1,48(a5)

      if(c == '\n' || c == C('D') || cons->e == cons->r+INPUT_BUF){
    8000046e:	47a9                	li	a5,10
    80000470:	18f48463          	beq	s1,a5,800005f8 <consoleintr+0x230>
    80000474:	4791                	li	a5,4
    80000476:	18f48163          	beq	s1,a5,800005f8 <consoleintr+0x230>
    8000047a:	0b052783          	lw	a5,176(a0)
    8000047e:	0807879b          	addiw	a5,a5,128
    80000482:	06f69063          	bne	a3,a5,800004e2 <consoleintr+0x11a>
      cons->buf[cons->e++ % INPUT_BUF] = c;
    80000486:	86be                	mv	a3,a5
    80000488:	aa85                	j	800005f8 <consoleintr+0x230>
    while(cons->e != cons->w &&
    8000048a:	0002e717          	auipc	a4,0x2e
    8000048e:	bd673703          	ld	a4,-1066(a4) # 8002e060 <cons>
    80000492:	0b872783          	lw	a5,184(a4)
    80000496:	0b472683          	lw	a3,180(a4)
    8000049a:	44a9                	li	s1,10
    8000049c:	0002e917          	auipc	s2,0x2e
    800004a0:	bc490913          	addi	s2,s2,-1084 # 8002e060 <cons>
    800004a4:	02f68f63          	beq	a3,a5,800004e2 <consoleintr+0x11a>
          cons->buf[(cons->e-1) % INPUT_BUF] != '\n'){
    800004a8:	37fd                	addiw	a5,a5,-1
    800004aa:	07f7f693          	andi	a3,a5,127
    800004ae:	96ba                	add	a3,a3,a4
    while(cons->e != cons->w &&
    800004b0:	0306c683          	lbu	a3,48(a3)
    800004b4:	02968763          	beq	a3,s1,800004e2 <consoleintr+0x11a>
      cons->e--;
    800004b8:	0af72c23          	sw	a5,184(a4)
      consputc(BACKSPACE);
    800004bc:	10000513          	li	a0,256
    800004c0:	00000097          	auipc	ra,0x0
    800004c4:	dbe080e7          	jalr	-578(ra) # 8000027e <consputc>
    while(cons->e != cons->w &&
    800004c8:	00093703          	ld	a4,0(s2)
    800004cc:	0b872783          	lw	a5,184(a4)
    800004d0:	0b472683          	lw	a3,180(a4)
    800004d4:	fcf69ae3          	bne	a3,a5,800004a8 <consoleintr+0xe0>
    800004d8:	a029                	j	800004e2 <consoleintr+0x11a>
    procdump();
    800004da:	00002097          	auipc	ra,0x2
    800004de:	5fe080e7          	jalr	1534(ra) # 80002ad8 <procdump>
      }
    }
    break;
  }
  
  release(&cons->lock);
    800004e2:	0002e517          	auipc	a0,0x2e
    800004e6:	b7e53503          	ld	a0,-1154(a0) # 8002e060 <cons>
    800004ea:	00001097          	auipc	ra,0x1
    800004ee:	9ea080e7          	jalr	-1558(ra) # 80000ed4 <release>
}
    800004f2:	70a2                	ld	ra,40(sp)
    800004f4:	7402                	ld	s0,32(sp)
    800004f6:	64e2                	ld	s1,24(sp)
    800004f8:	6942                	ld	s2,16(sp)
    800004fa:	69a2                	ld	s3,8(sp)
    800004fc:	6a02                	ld	s4,0(sp)
    800004fe:	6145                	addi	sp,sp,48
    80000500:	8082                	ret
    priodump();
    80000502:	00002097          	auipc	ra,0x2
    80000506:	692080e7          	jalr	1682(ra) # 80002b94 <priodump>
    break;
    8000050a:	bfe1                	j	800004e2 <consoleintr+0x11a>
    dump_locks();
    8000050c:	00000097          	auipc	ra,0x0
    80000510:	668080e7          	jalr	1640(ra) # 80000b74 <dump_locks>
    break;
    80000514:	b7f9                	j	800004e2 <consoleintr+0x11a>
    acquire(&console_number_lock);
    80000516:	00013997          	auipc	s3,0x13
    8000051a:	52a98993          	addi	s3,s3,1322 # 80013a40 <console_number_lock>
    8000051e:	854e                	mv	a0,s3
    80000520:	00000097          	auipc	ra,0x0
    80000524:	768080e7          	jalr	1896(ra) # 80000c88 <acquire>
    struct spinlock* old = &cons->lock;
    80000528:	0002e917          	auipc	s2,0x2e
    8000052c:	b3890913          	addi	s2,s2,-1224 # 8002e060 <cons>
    80000530:	00093a03          	ld	s4,0(s2)
    console_number = (console_number + 1) % NBCONSOLES;
    80000534:	0002e497          	auipc	s1,0x2e
    80000538:	b3448493          	addi	s1,s1,-1228 # 8002e068 <console_number>
    8000053c:	409c                	lw	a5,0(s1)
    8000053e:	2785                	addiw	a5,a5,1
    80000540:	470d                	li	a4,3
    80000542:	02e7e7bb          	remw	a5,a5,a4
    80000546:	0007871b          	sext.w	a4,a5
    8000054a:	c09c                	sw	a5,0(s1)
    cons = &consoles[console_number];
    8000054c:	00171513          	slli	a0,a4,0x1
    80000550:	953a                	add	a0,a0,a4
    80000552:	051a                	slli	a0,a0,0x6
    80000554:	00013797          	auipc	a5,0x13
    80000558:	2ac78793          	addi	a5,a5,684 # 80013800 <consoles>
    8000055c:	953e                	add	a0,a0,a5
    8000055e:	00a93023          	sd	a0,0(s2)
    acquire(&cons->lock);
    80000562:	00000097          	auipc	ra,0x0
    80000566:	726080e7          	jalr	1830(ra) # 80000c88 <acquire>
    release(old);
    8000056a:	8552                	mv	a0,s4
    8000056c:	00001097          	auipc	ra,0x1
    80000570:	968080e7          	jalr	-1688(ra) # 80000ed4 <release>
    wakeup(cons);
    80000574:	00093503          	ld	a0,0(s2)
    80000578:	00002097          	auipc	ra,0x2
    8000057c:	3d8080e7          	jalr	984(ra) # 80002950 <wakeup>
    printf("Switched to console number %d\n", console_number);
    80000580:	408c                	lw	a1,0(s1)
    80000582:	00008517          	auipc	a0,0x8
    80000586:	b9650513          	addi	a0,a0,-1130 # 80008118 <userret+0x88>
    8000058a:	00000097          	auipc	ra,0x0
    8000058e:	3e2080e7          	jalr	994(ra) # 8000096c <printf>
    release(&console_number_lock);
    80000592:	854e                	mv	a0,s3
    80000594:	00001097          	auipc	ra,0x1
    80000598:	940080e7          	jalr	-1728(ra) # 80000ed4 <release>
    break;
    8000059c:	b799                	j	800004e2 <consoleintr+0x11a>
    if(cons->e != cons->w){
    8000059e:	0002e797          	auipc	a5,0x2e
    800005a2:	ac27b783          	ld	a5,-1342(a5) # 8002e060 <cons>
    800005a6:	0b87a703          	lw	a4,184(a5)
    800005aa:	0b47a683          	lw	a3,180(a5)
    800005ae:	f2e68ae3          	beq	a3,a4,800004e2 <consoleintr+0x11a>
      cons->e--;
    800005b2:	377d                	addiw	a4,a4,-1
    800005b4:	0ae7ac23          	sw	a4,184(a5)
      consputc(BACKSPACE);
    800005b8:	10000513          	li	a0,256
    800005bc:	00000097          	auipc	ra,0x0
    800005c0:	cc2080e7          	jalr	-830(ra) # 8000027e <consputc>
    800005c4:	bf39                	j	800004e2 <consoleintr+0x11a>
    if(c != 0 && cons->e-cons->r < INPUT_BUF){
    800005c6:	dc91                	beqz	s1,800004e2 <consoleintr+0x11a>
    800005c8:	bda9                	j	80000422 <consoleintr+0x5a>
      consputc(c);
    800005ca:	4529                	li	a0,10
    800005cc:	00000097          	auipc	ra,0x0
    800005d0:	cb2080e7          	jalr	-846(ra) # 8000027e <consputc>
      cons->buf[cons->e++ % INPUT_BUF] = c;
    800005d4:	0002e517          	auipc	a0,0x2e
    800005d8:	a8c53503          	ld	a0,-1396(a0) # 8002e060 <cons>
    800005dc:	0b852783          	lw	a5,184(a0)
    800005e0:	0017871b          	addiw	a4,a5,1
    800005e4:	0007069b          	sext.w	a3,a4
    800005e8:	0ae52c23          	sw	a4,184(a0)
    800005ec:	07f7f793          	andi	a5,a5,127
    800005f0:	97aa                	add	a5,a5,a0
    800005f2:	4729                	li	a4,10
    800005f4:	02e78823          	sb	a4,48(a5)
        cons->w = cons->e;
    800005f8:	0ad52a23          	sw	a3,180(a0)
        wakeup(&cons->r);
    800005fc:	0b050513          	addi	a0,a0,176
    80000600:	00002097          	auipc	ra,0x2
    80000604:	350080e7          	jalr	848(ra) # 80002950 <wakeup>
    80000608:	bde9                	j	800004e2 <consoleintr+0x11a>

000000008000060a <consoleinit>:

void
consoleinit(void)
{
    8000060a:	1101                	addi	sp,sp,-32
    8000060c:	ec06                	sd	ra,24(sp)
    8000060e:	e822                	sd	s0,16(sp)
    80000610:	e426                	sd	s1,8(sp)
    80000612:	1000                	addi	s0,sp,32
  initlock(&console_number_lock, "console_number_lock");
    80000614:	00013497          	auipc	s1,0x13
    80000618:	1ec48493          	addi	s1,s1,492 # 80013800 <consoles>
    8000061c:	00008597          	auipc	a1,0x8
    80000620:	b1c58593          	addi	a1,a1,-1252 # 80008138 <userret+0xa8>
    80000624:	00013517          	auipc	a0,0x13
    80000628:	41c50513          	addi	a0,a0,1052 # 80013a40 <console_number_lock>
    8000062c:	00000097          	auipc	ra,0x0
    80000630:	4f2080e7          	jalr	1266(ra) # 80000b1e <initlock>
  console_number = 0;
    80000634:	0002e797          	auipc	a5,0x2e
    80000638:	a207aa23          	sw	zero,-1484(a5) # 8002e068 <console_number>
  cons = &consoles[console_number];
    8000063c:	0002e797          	auipc	a5,0x2e
    80000640:	a297b223          	sd	s1,-1500(a5) # 8002e060 <cons>
  for(int i = 0; i < NBCONSOLES; i++){
    initlock(&consoles[i].lock, "cons");
    80000644:	00008597          	auipc	a1,0x8
    80000648:	b0c58593          	addi	a1,a1,-1268 # 80008150 <userret+0xc0>
    8000064c:	8526                	mv	a0,s1
    8000064e:	00000097          	auipc	ra,0x0
    80000652:	4d0080e7          	jalr	1232(ra) # 80000b1e <initlock>
    80000656:	00008597          	auipc	a1,0x8
    8000065a:	afa58593          	addi	a1,a1,-1286 # 80008150 <userret+0xc0>
    8000065e:	00013517          	auipc	a0,0x13
    80000662:	26250513          	addi	a0,a0,610 # 800138c0 <consoles+0xc0>
    80000666:	00000097          	auipc	ra,0x0
    8000066a:	4b8080e7          	jalr	1208(ra) # 80000b1e <initlock>
    8000066e:	00008597          	auipc	a1,0x8
    80000672:	ae258593          	addi	a1,a1,-1310 # 80008150 <userret+0xc0>
    80000676:	00013517          	auipc	a0,0x13
    8000067a:	30a50513          	addi	a0,a0,778 # 80013980 <consoles+0x180>
    8000067e:	00000097          	auipc	ra,0x0
    80000682:	4a0080e7          	jalr	1184(ra) # 80000b1e <initlock>
  }

  uartinit();
    80000686:	00000097          	auipc	ra,0x0
    8000068a:	38a080e7          	jalr	906(ra) # 80000a10 <uartinit>

  // connect read and write system calls
  // to consoleread and consolewrite.
  devsw[CONSOLE].read = consoleread;
    8000068e:	00026797          	auipc	a5,0x26
    80000692:	50a78793          	addi	a5,a5,1290 # 80026b98 <devsw>
    80000696:	00000717          	auipc	a4,0x0
    8000069a:	a5670713          	addi	a4,a4,-1450 # 800000ec <consoleread>
    8000069e:	eb98                	sd	a4,16(a5)
  devsw[CONSOLE].write = consolewrite;
    800006a0:	00000717          	auipc	a4,0x0
    800006a4:	c2c70713          	addi	a4,a4,-980 # 800002cc <consolewrite>
    800006a8:	ef98                	sd	a4,24(a5)
}
    800006aa:	60e2                	ld	ra,24(sp)
    800006ac:	6442                	ld	s0,16(sp)
    800006ae:	64a2                	ld	s1,8(sp)
    800006b0:	6105                	addi	sp,sp,32
    800006b2:	8082                	ret

00000000800006b4 <printint>:

static char digits[] = "0123456789abcdef";

static void
printint(int xx, int base, int sign)
{
    800006b4:	7179                	addi	sp,sp,-48
    800006b6:	f406                	sd	ra,40(sp)
    800006b8:	f022                	sd	s0,32(sp)
    800006ba:	ec26                	sd	s1,24(sp)
    800006bc:	e84a                	sd	s2,16(sp)
    800006be:	1800                	addi	s0,sp,48
  char buf[16];
  int i;
  uint x;

  if(sign && (sign = xx < 0))
    800006c0:	c219                	beqz	a2,800006c6 <printint+0x12>
    800006c2:	08054663          	bltz	a0,8000074e <printint+0x9a>
    x = -xx;
  else
    x = xx;
    800006c6:	2501                	sext.w	a0,a0
    800006c8:	4881                	li	a7,0
    800006ca:	fd040693          	addi	a3,s0,-48

  i = 0;
    800006ce:	4701                	li	a4,0
  do {
    buf[i++] = digits[x % base];
    800006d0:	2581                	sext.w	a1,a1
    800006d2:	00009617          	auipc	a2,0x9
    800006d6:	85660613          	addi	a2,a2,-1962 # 80008f28 <digits>
    800006da:	883a                	mv	a6,a4
    800006dc:	2705                	addiw	a4,a4,1
    800006de:	02b577bb          	remuw	a5,a0,a1
    800006e2:	1782                	slli	a5,a5,0x20
    800006e4:	9381                	srli	a5,a5,0x20
    800006e6:	97b2                	add	a5,a5,a2
    800006e8:	0007c783          	lbu	a5,0(a5)
    800006ec:	00f68023          	sb	a5,0(a3)
  } while((x /= base) != 0);
    800006f0:	0005079b          	sext.w	a5,a0
    800006f4:	02b5553b          	divuw	a0,a0,a1
    800006f8:	0685                	addi	a3,a3,1
    800006fa:	feb7f0e3          	bgeu	a5,a1,800006da <printint+0x26>

  if(sign)
    800006fe:	00088b63          	beqz	a7,80000714 <printint+0x60>
    buf[i++] = '-';
    80000702:	fe040793          	addi	a5,s0,-32
    80000706:	973e                	add	a4,a4,a5
    80000708:	02d00793          	li	a5,45
    8000070c:	fef70823          	sb	a5,-16(a4)
    80000710:	0028071b          	addiw	a4,a6,2

  while(--i >= 0)
    80000714:	02e05763          	blez	a4,80000742 <printint+0x8e>
    80000718:	fd040793          	addi	a5,s0,-48
    8000071c:	00e784b3          	add	s1,a5,a4
    80000720:	fff78913          	addi	s2,a5,-1
    80000724:	993a                	add	s2,s2,a4
    80000726:	377d                	addiw	a4,a4,-1
    80000728:	1702                	slli	a4,a4,0x20
    8000072a:	9301                	srli	a4,a4,0x20
    8000072c:	40e90933          	sub	s2,s2,a4
    consputc(buf[i]);
    80000730:	fff4c503          	lbu	a0,-1(s1)
    80000734:	00000097          	auipc	ra,0x0
    80000738:	b4a080e7          	jalr	-1206(ra) # 8000027e <consputc>
  while(--i >= 0)
    8000073c:	14fd                	addi	s1,s1,-1
    8000073e:	ff2499e3          	bne	s1,s2,80000730 <printint+0x7c>
}
    80000742:	70a2                	ld	ra,40(sp)
    80000744:	7402                	ld	s0,32(sp)
    80000746:	64e2                	ld	s1,24(sp)
    80000748:	6942                	ld	s2,16(sp)
    8000074a:	6145                	addi	sp,sp,48
    8000074c:	8082                	ret
    x = -xx;
    8000074e:	40a0053b          	negw	a0,a0
  if(sign && (sign = xx < 0))
    80000752:	4885                	li	a7,1
    x = -xx;
    80000754:	bf9d                	j	800006ca <printint+0x16>

0000000080000756 <panic>:
  printf_locking(0, fmt, ap);
}

void
panic(char *s)
{
    80000756:	1101                	addi	sp,sp,-32
    80000758:	ec06                	sd	ra,24(sp)
    8000075a:	e822                	sd	s0,16(sp)
    8000075c:	e426                	sd	s1,8(sp)
    8000075e:	1000                	addi	s0,sp,32
    80000760:	84aa                	mv	s1,a0
  pr.locking = 0;
    80000762:	00013797          	auipc	a5,0x13
    80000766:	3207af23          	sw	zero,830(a5) # 80013aa0 <pr+0x30>
  printf("PANIC: ");
    8000076a:	00008517          	auipc	a0,0x8
    8000076e:	9ee50513          	addi	a0,a0,-1554 # 80008158 <userret+0xc8>
    80000772:	00000097          	auipc	ra,0x0
    80000776:	1fa080e7          	jalr	506(ra) # 8000096c <printf>
  printf(s);
    8000077a:	8526                	mv	a0,s1
    8000077c:	00000097          	auipc	ra,0x0
    80000780:	1f0080e7          	jalr	496(ra) # 8000096c <printf>
  printf("\n");
    80000784:	00008517          	auipc	a0,0x8
    80000788:	ec450513          	addi	a0,a0,-316 # 80008648 <userret+0x5b8>
    8000078c:	00000097          	auipc	ra,0x0
    80000790:	1e0080e7          	jalr	480(ra) # 8000096c <printf>
  printf("HINT: restart xv6 using 'make qemu-gdb', type 'b panic' (to set breakpoint in panic) in the gdb window, followed by 'c' (continue), and when the kernel hits the breakpoint, type 'bt' to get a backtrace\n");
    80000794:	00008517          	auipc	a0,0x8
    80000798:	9cc50513          	addi	a0,a0,-1588 # 80008160 <userret+0xd0>
    8000079c:	00000097          	auipc	ra,0x0
    800007a0:	1d0080e7          	jalr	464(ra) # 8000096c <printf>
  panicked = 1; // freeze other CPUs
    800007a4:	4785                	li	a5,1
    800007a6:	0002e717          	auipc	a4,0x2e
    800007aa:	8cf72323          	sw	a5,-1850(a4) # 8002e06c <panicked>
  for(;;)
    800007ae:	a001                	j	800007ae <panic+0x58>

00000000800007b0 <printf_locking>:
{
    800007b0:	7119                	addi	sp,sp,-128
    800007b2:	fc86                	sd	ra,120(sp)
    800007b4:	f8a2                	sd	s0,112(sp)
    800007b6:	f4a6                	sd	s1,104(sp)
    800007b8:	f0ca                	sd	s2,96(sp)
    800007ba:	ecce                	sd	s3,88(sp)
    800007bc:	e8d2                	sd	s4,80(sp)
    800007be:	e4d6                	sd	s5,72(sp)
    800007c0:	e0da                	sd	s6,64(sp)
    800007c2:	fc5e                	sd	s7,56(sp)
    800007c4:	f862                	sd	s8,48(sp)
    800007c6:	f466                	sd	s9,40(sp)
    800007c8:	f06a                	sd	s10,32(sp)
    800007ca:	ec6e                	sd	s11,24(sp)
    800007cc:	0100                	addi	s0,sp,128
    800007ce:	8d2a                	mv	s10,a0
    800007d0:	8a2e                	mv	s4,a1
    800007d2:	8932                	mv	s2,a2
  if(locking)
    800007d4:	e515                	bnez	a0,80000800 <printf_locking+0x50>
  if (fmt == 0)
    800007d6:	020a0e63          	beqz	s4,80000812 <printf_locking+0x62>
  for(i = 0; (c = fmt[i] & 0xff) != 0; i++){
    800007da:	000a4503          	lbu	a0,0(s4)
    800007de:	4481                	li	s1,0
    800007e0:	14050c63          	beqz	a0,80000938 <printf_locking+0x188>
    if(c != '%'){
    800007e4:	02500a93          	li	s5,37
    switch(c){
    800007e8:	07000b13          	li	s6,112
  consputc('x');
    800007ec:	4dc1                	li	s11,16
    consputc(digits[x >> (sizeof(uint64) * 8 - 4)]);
    800007ee:	00008b97          	auipc	s7,0x8
    800007f2:	73ab8b93          	addi	s7,s7,1850 # 80008f28 <digits>
    switch(c){
    800007f6:	07300c93          	li	s9,115
    800007fa:	06400c13          	li	s8,100
    800007fe:	a82d                	j	80000838 <printf_locking+0x88>
    acquire(&pr.lock);
    80000800:	00013517          	auipc	a0,0x13
    80000804:	27050513          	addi	a0,a0,624 # 80013a70 <pr>
    80000808:	00000097          	auipc	ra,0x0
    8000080c:	480080e7          	jalr	1152(ra) # 80000c88 <acquire>
    80000810:	b7d9                	j	800007d6 <printf_locking+0x26>
    panic("null fmt");
    80000812:	00008517          	auipc	a0,0x8
    80000816:	a2650513          	addi	a0,a0,-1498 # 80008238 <userret+0x1a8>
    8000081a:	00000097          	auipc	ra,0x0
    8000081e:	f3c080e7          	jalr	-196(ra) # 80000756 <panic>
      consputc(c);
    80000822:	00000097          	auipc	ra,0x0
    80000826:	a5c080e7          	jalr	-1444(ra) # 8000027e <consputc>
  for(i = 0; (c = fmt[i] & 0xff) != 0; i++){
    8000082a:	2485                	addiw	s1,s1,1
    8000082c:	009a07b3          	add	a5,s4,s1
    80000830:	0007c503          	lbu	a0,0(a5)
    80000834:	10050263          	beqz	a0,80000938 <printf_locking+0x188>
    if(c != '%'){
    80000838:	ff5515e3          	bne	a0,s5,80000822 <printf_locking+0x72>
    c = fmt[++i] & 0xff;
    8000083c:	2485                	addiw	s1,s1,1
    8000083e:	009a07b3          	add	a5,s4,s1
    80000842:	0007c783          	lbu	a5,0(a5)
    80000846:	0007899b          	sext.w	s3,a5
    if(c == 0)
    8000084a:	c7fd                	beqz	a5,80000938 <printf_locking+0x188>
    switch(c){
    8000084c:	05678663          	beq	a5,s6,80000898 <printf_locking+0xe8>
    80000850:	02fb7463          	bgeu	s6,a5,80000878 <printf_locking+0xc8>
    80000854:	09978563          	beq	a5,s9,800008de <printf_locking+0x12e>
    80000858:	07800713          	li	a4,120
    8000085c:	0ce79163          	bne	a5,a4,8000091e <printf_locking+0x16e>
      printint(va_arg(ap, int), 16, 1);
    80000860:	00890993          	addi	s3,s2,8
    80000864:	4605                	li	a2,1
    80000866:	85ee                	mv	a1,s11
    80000868:	00092503          	lw	a0,0(s2)
    8000086c:	00000097          	auipc	ra,0x0
    80000870:	e48080e7          	jalr	-440(ra) # 800006b4 <printint>
    80000874:	894e                	mv	s2,s3
      break;
    80000876:	bf55                	j	8000082a <printf_locking+0x7a>
    switch(c){
    80000878:	09578d63          	beq	a5,s5,80000912 <printf_locking+0x162>
    8000087c:	0b879163          	bne	a5,s8,8000091e <printf_locking+0x16e>
      printint(va_arg(ap, int), 10, 1);
    80000880:	00890993          	addi	s3,s2,8
    80000884:	4605                	li	a2,1
    80000886:	45a9                	li	a1,10
    80000888:	00092503          	lw	a0,0(s2)
    8000088c:	00000097          	auipc	ra,0x0
    80000890:	e28080e7          	jalr	-472(ra) # 800006b4 <printint>
    80000894:	894e                	mv	s2,s3
      break;
    80000896:	bf51                	j	8000082a <printf_locking+0x7a>
      printptr(va_arg(ap, uint64));
    80000898:	00890793          	addi	a5,s2,8
    8000089c:	f8f43423          	sd	a5,-120(s0)
    800008a0:	00093983          	ld	s3,0(s2)
  consputc('0');
    800008a4:	03000513          	li	a0,48
    800008a8:	00000097          	auipc	ra,0x0
    800008ac:	9d6080e7          	jalr	-1578(ra) # 8000027e <consputc>
  consputc('x');
    800008b0:	07800513          	li	a0,120
    800008b4:	00000097          	auipc	ra,0x0
    800008b8:	9ca080e7          	jalr	-1590(ra) # 8000027e <consputc>
    800008bc:	896e                	mv	s2,s11
    consputc(digits[x >> (sizeof(uint64) * 8 - 4)]);
    800008be:	03c9d793          	srli	a5,s3,0x3c
    800008c2:	97de                	add	a5,a5,s7
    800008c4:	0007c503          	lbu	a0,0(a5)
    800008c8:	00000097          	auipc	ra,0x0
    800008cc:	9b6080e7          	jalr	-1610(ra) # 8000027e <consputc>
  for (i = 0; i < (sizeof(uint64) * 2); i++, x <<= 4)
    800008d0:	0992                	slli	s3,s3,0x4
    800008d2:	397d                	addiw	s2,s2,-1
    800008d4:	fe0915e3          	bnez	s2,800008be <printf_locking+0x10e>
      printptr(va_arg(ap, uint64));
    800008d8:	f8843903          	ld	s2,-120(s0)
    800008dc:	b7b9                	j	8000082a <printf_locking+0x7a>
      if((s = va_arg(ap, char*)) == 0)
    800008de:	00890993          	addi	s3,s2,8
    800008e2:	00093903          	ld	s2,0(s2)
    800008e6:	00090f63          	beqz	s2,80000904 <printf_locking+0x154>
      for(; *s; s++)
    800008ea:	00094503          	lbu	a0,0(s2)
    800008ee:	c139                	beqz	a0,80000934 <printf_locking+0x184>
        consputc(*s);
    800008f0:	00000097          	auipc	ra,0x0
    800008f4:	98e080e7          	jalr	-1650(ra) # 8000027e <consputc>
      for(; *s; s++)
    800008f8:	0905                	addi	s2,s2,1
    800008fa:	00094503          	lbu	a0,0(s2)
    800008fe:	f96d                	bnez	a0,800008f0 <printf_locking+0x140>
      if((s = va_arg(ap, char*)) == 0)
    80000900:	894e                	mv	s2,s3
    80000902:	b725                	j	8000082a <printf_locking+0x7a>
        s = "(null)";
    80000904:	00008917          	auipc	s2,0x8
    80000908:	92c90913          	addi	s2,s2,-1748 # 80008230 <userret+0x1a0>
      for(; *s; s++)
    8000090c:	02800513          	li	a0,40
    80000910:	b7c5                	j	800008f0 <printf_locking+0x140>
      consputc('%');
    80000912:	8556                	mv	a0,s5
    80000914:	00000097          	auipc	ra,0x0
    80000918:	96a080e7          	jalr	-1686(ra) # 8000027e <consputc>
      break;
    8000091c:	b739                	j	8000082a <printf_locking+0x7a>
      consputc('%');
    8000091e:	8556                	mv	a0,s5
    80000920:	00000097          	auipc	ra,0x0
    80000924:	95e080e7          	jalr	-1698(ra) # 8000027e <consputc>
      consputc(c);
    80000928:	854e                	mv	a0,s3
    8000092a:	00000097          	auipc	ra,0x0
    8000092e:	954080e7          	jalr	-1708(ra) # 8000027e <consputc>
      break;
    80000932:	bde5                	j	8000082a <printf_locking+0x7a>
      if((s = va_arg(ap, char*)) == 0)
    80000934:	894e                	mv	s2,s3
    80000936:	bdd5                	j	8000082a <printf_locking+0x7a>
  if(locking)
    80000938:	020d1163          	bnez	s10,8000095a <printf_locking+0x1aa>
}
    8000093c:	70e6                	ld	ra,120(sp)
    8000093e:	7446                	ld	s0,112(sp)
    80000940:	74a6                	ld	s1,104(sp)
    80000942:	7906                	ld	s2,96(sp)
    80000944:	69e6                	ld	s3,88(sp)
    80000946:	6a46                	ld	s4,80(sp)
    80000948:	6aa6                	ld	s5,72(sp)
    8000094a:	6b06                	ld	s6,64(sp)
    8000094c:	7be2                	ld	s7,56(sp)
    8000094e:	7c42                	ld	s8,48(sp)
    80000950:	7ca2                	ld	s9,40(sp)
    80000952:	7d02                	ld	s10,32(sp)
    80000954:	6de2                	ld	s11,24(sp)
    80000956:	6109                	addi	sp,sp,128
    80000958:	8082                	ret
    release(&pr.lock);
    8000095a:	00013517          	auipc	a0,0x13
    8000095e:	11650513          	addi	a0,a0,278 # 80013a70 <pr>
    80000962:	00000097          	auipc	ra,0x0
    80000966:	572080e7          	jalr	1394(ra) # 80000ed4 <release>
}
    8000096a:	bfc9                	j	8000093c <printf_locking+0x18c>

000000008000096c <printf>:
printf(char *fmt, ...){
    8000096c:	711d                	addi	sp,sp,-96
    8000096e:	ec06                	sd	ra,24(sp)
    80000970:	e822                	sd	s0,16(sp)
    80000972:	1000                	addi	s0,sp,32
    80000974:	e40c                	sd	a1,8(s0)
    80000976:	e810                	sd	a2,16(s0)
    80000978:	ec14                	sd	a3,24(s0)
    8000097a:	f018                	sd	a4,32(s0)
    8000097c:	f41c                	sd	a5,40(s0)
    8000097e:	03043823          	sd	a6,48(s0)
    80000982:	03143c23          	sd	a7,56(s0)
  va_start(ap, fmt);
    80000986:	00840613          	addi	a2,s0,8
    8000098a:	fec43423          	sd	a2,-24(s0)
  printf_locking(pr.locking, fmt, ap);
    8000098e:	85aa                	mv	a1,a0
    80000990:	00013517          	auipc	a0,0x13
    80000994:	11052503          	lw	a0,272(a0) # 80013aa0 <pr+0x30>
    80000998:	00000097          	auipc	ra,0x0
    8000099c:	e18080e7          	jalr	-488(ra) # 800007b0 <printf_locking>
}
    800009a0:	60e2                	ld	ra,24(sp)
    800009a2:	6442                	ld	s0,16(sp)
    800009a4:	6125                	addi	sp,sp,96
    800009a6:	8082                	ret

00000000800009a8 <printf_no_lock>:
printf_no_lock(char *fmt, ...){
    800009a8:	711d                	addi	sp,sp,-96
    800009aa:	ec06                	sd	ra,24(sp)
    800009ac:	e822                	sd	s0,16(sp)
    800009ae:	1000                	addi	s0,sp,32
    800009b0:	e40c                	sd	a1,8(s0)
    800009b2:	e810                	sd	a2,16(s0)
    800009b4:	ec14                	sd	a3,24(s0)
    800009b6:	f018                	sd	a4,32(s0)
    800009b8:	f41c                	sd	a5,40(s0)
    800009ba:	03043823          	sd	a6,48(s0)
    800009be:	03143c23          	sd	a7,56(s0)
  va_start(ap, fmt);
    800009c2:	00840613          	addi	a2,s0,8
    800009c6:	fec43423          	sd	a2,-24(s0)
  printf_locking(0, fmt, ap);
    800009ca:	85aa                	mv	a1,a0
    800009cc:	4501                	li	a0,0
    800009ce:	00000097          	auipc	ra,0x0
    800009d2:	de2080e7          	jalr	-542(ra) # 800007b0 <printf_locking>
}
    800009d6:	60e2                	ld	ra,24(sp)
    800009d8:	6442                	ld	s0,16(sp)
    800009da:	6125                	addi	sp,sp,96
    800009dc:	8082                	ret

00000000800009de <printfinit>:
    ;
}

void
printfinit(void)
{
    800009de:	1101                	addi	sp,sp,-32
    800009e0:	ec06                	sd	ra,24(sp)
    800009e2:	e822                	sd	s0,16(sp)
    800009e4:	e426                	sd	s1,8(sp)
    800009e6:	1000                	addi	s0,sp,32
  initlock(&pr.lock, "pr");
    800009e8:	00013497          	auipc	s1,0x13
    800009ec:	08848493          	addi	s1,s1,136 # 80013a70 <pr>
    800009f0:	00008597          	auipc	a1,0x8
    800009f4:	85858593          	addi	a1,a1,-1960 # 80008248 <userret+0x1b8>
    800009f8:	8526                	mv	a0,s1
    800009fa:	00000097          	auipc	ra,0x0
    800009fe:	124080e7          	jalr	292(ra) # 80000b1e <initlock>
  pr.locking = 1;
    80000a02:	4785                	li	a5,1
    80000a04:	d89c                	sw	a5,48(s1)
}
    80000a06:	60e2                	ld	ra,24(sp)
    80000a08:	6442                	ld	s0,16(sp)
    80000a0a:	64a2                	ld	s1,8(sp)
    80000a0c:	6105                	addi	sp,sp,32
    80000a0e:	8082                	ret

0000000080000a10 <uartinit>:
#define ReadReg(reg) (*(Reg(reg)))
#define WriteReg(reg, v) (*(Reg(reg)) = (v))

void
uartinit(void)
{
    80000a10:	1141                	addi	sp,sp,-16
    80000a12:	e422                	sd	s0,8(sp)
    80000a14:	0800                	addi	s0,sp,16
  // disable interrupts.
  WriteReg(IER, 0x00);
    80000a16:	100007b7          	lui	a5,0x10000
    80000a1a:	000780a3          	sb	zero,1(a5) # 10000001 <_entry-0x6fffffff>

  // special mode to set baud rate.
  WriteReg(LCR, 0x80);
    80000a1e:	f8000713          	li	a4,-128
    80000a22:	00e781a3          	sb	a4,3(a5)

  // LSB for baud rate of 38.4K.
  WriteReg(0, 0x03);
    80000a26:	470d                	li	a4,3
    80000a28:	00e78023          	sb	a4,0(a5)

  // MSB for baud rate of 38.4K.
  WriteReg(1, 0x00);
    80000a2c:	000780a3          	sb	zero,1(a5)

  // leave set-baud mode,
  // and set word length to 8 bits, no parity.
  WriteReg(LCR, 0x03);
    80000a30:	00e781a3          	sb	a4,3(a5)

  // reset and enable FIFOs.
  WriteReg(FCR, 0x07);
    80000a34:	471d                	li	a4,7
    80000a36:	00e78123          	sb	a4,2(a5)

  // enable receive interrupts.
  WriteReg(IER, 0x01);
    80000a3a:	4705                	li	a4,1
    80000a3c:	00e780a3          	sb	a4,1(a5)
}
    80000a40:	6422                	ld	s0,8(sp)
    80000a42:	0141                	addi	sp,sp,16
    80000a44:	8082                	ret

0000000080000a46 <uartputc>:

// write one output character to the UART.
void
uartputc(int c)
{
    80000a46:	1141                	addi	sp,sp,-16
    80000a48:	e422                	sd	s0,8(sp)
    80000a4a:	0800                	addi	s0,sp,16
  // wait for Transmit Holding Empty to be set in LSR.
  while((ReadReg(LSR) & (1 << 5)) == 0)
    80000a4c:	10000737          	lui	a4,0x10000
    80000a50:	00574783          	lbu	a5,5(a4) # 10000005 <_entry-0x6ffffffb>
    80000a54:	0ff7f793          	andi	a5,a5,255
    80000a58:	0207f793          	andi	a5,a5,32
    80000a5c:	dbf5                	beqz	a5,80000a50 <uartputc+0xa>
    ;
  WriteReg(THR, c);
    80000a5e:	0ff57513          	andi	a0,a0,255
    80000a62:	100007b7          	lui	a5,0x10000
    80000a66:	00a78023          	sb	a0,0(a5) # 10000000 <_entry-0x70000000>
}
    80000a6a:	6422                	ld	s0,8(sp)
    80000a6c:	0141                	addi	sp,sp,16
    80000a6e:	8082                	ret

0000000080000a70 <uartgetc>:

// read one input character from the UART.
// return -1 if none is waiting.
int
uartgetc(void)
{
    80000a70:	1141                	addi	sp,sp,-16
    80000a72:	e422                	sd	s0,8(sp)
    80000a74:	0800                	addi	s0,sp,16
  if(ReadReg(LSR) & 0x01){
    80000a76:	100007b7          	lui	a5,0x10000
    80000a7a:	0057c783          	lbu	a5,5(a5) # 10000005 <_entry-0x6ffffffb>
    80000a7e:	8b85                	andi	a5,a5,1
    80000a80:	cb91                	beqz	a5,80000a94 <uartgetc+0x24>
    // input data is ready.
    return ReadReg(RHR);
    80000a82:	100007b7          	lui	a5,0x10000
    80000a86:	0007c503          	lbu	a0,0(a5) # 10000000 <_entry-0x70000000>
    80000a8a:	0ff57513          	andi	a0,a0,255
  } else {
    return -1;
  }
}
    80000a8e:	6422                	ld	s0,8(sp)
    80000a90:	0141                	addi	sp,sp,16
    80000a92:	8082                	ret
    return -1;
    80000a94:	557d                	li	a0,-1
    80000a96:	bfe5                	j	80000a8e <uartgetc+0x1e>

0000000080000a98 <uartintr>:

// trap.c calls here when the uart interrupts.
void
uartintr(void)
{
    80000a98:	1101                	addi	sp,sp,-32
    80000a9a:	ec06                	sd	ra,24(sp)
    80000a9c:	e822                	sd	s0,16(sp)
    80000a9e:	e426                	sd	s1,8(sp)
    80000aa0:	1000                	addi	s0,sp,32
  while(1){
    int c = uartgetc();
    if(c == -1)
    80000aa2:	54fd                	li	s1,-1
    int c = uartgetc();
    80000aa4:	00000097          	auipc	ra,0x0
    80000aa8:	fcc080e7          	jalr	-52(ra) # 80000a70 <uartgetc>
    if(c == -1)
    80000aac:	00950763          	beq	a0,s1,80000aba <uartintr+0x22>
      break;
    consoleintr(c);
    80000ab0:	00000097          	auipc	ra,0x0
    80000ab4:	918080e7          	jalr	-1768(ra) # 800003c8 <consoleintr>
  while(1){
    80000ab8:	b7f5                	j	80000aa4 <uartintr+0xc>
  }
}
    80000aba:	60e2                	ld	ra,24(sp)
    80000abc:	6442                	ld	s0,16(sp)
    80000abe:	64a2                	ld	s1,8(sp)
    80000ac0:	6105                	addi	sp,sp,32
    80000ac2:	8082                	ret

0000000080000ac4 <kinit>:
extern char end[]; // first address after kernel.
                   // defined by kernel.ld.

void
kinit()
{
    80000ac4:	1141                	addi	sp,sp,-16
    80000ac6:	e406                	sd	ra,8(sp)
    80000ac8:	e022                	sd	s0,0(sp)
    80000aca:	0800                	addi	s0,sp,16
  char *p = (char *) PGROUNDUP((uint64) end);
  bd_init(p, (void*)PHYSTOP);
    80000acc:	45c5                	li	a1,17
    80000ace:	05ee                	slli	a1,a1,0x1b
    80000ad0:	0002e517          	auipc	a0,0x2e
    80000ad4:	5db50513          	addi	a0,a0,1499 # 8002f0ab <end+0xfff>
    80000ad8:	77fd                	lui	a5,0xfffff
    80000ada:	8d7d                	and	a0,a0,a5
    80000adc:	00007097          	auipc	ra,0x7
    80000ae0:	a0e080e7          	jalr	-1522(ra) # 800074ea <bd_init>
}
    80000ae4:	60a2                	ld	ra,8(sp)
    80000ae6:	6402                	ld	s0,0(sp)
    80000ae8:	0141                	addi	sp,sp,16
    80000aea:	8082                	ret

0000000080000aec <kfree>:
// which normally should have been returned by a
// call to kalloc().  (The exception is when
// initializing the allocator; see kinit above.)
void
kfree(void *pa)
{
    80000aec:	1141                	addi	sp,sp,-16
    80000aee:	e406                	sd	ra,8(sp)
    80000af0:	e022                	sd	s0,0(sp)
    80000af2:	0800                	addi	s0,sp,16
  bd_free(pa);
    80000af4:	00006097          	auipc	ra,0x6
    80000af8:	538080e7          	jalr	1336(ra) # 8000702c <bd_free>
}
    80000afc:	60a2                	ld	ra,8(sp)
    80000afe:	6402                	ld	s0,0(sp)
    80000b00:	0141                	addi	sp,sp,16
    80000b02:	8082                	ret

0000000080000b04 <kalloc>:
// Allocate one 4096-byte page of physical memory.
// Returns a pointer that the kernel can use.
// Returns 0 if the memory cannot be allocated.
void *
kalloc(void)
{
    80000b04:	1141                	addi	sp,sp,-16
    80000b06:	e406                	sd	ra,8(sp)
    80000b08:	e022                	sd	s0,0(sp)
    80000b0a:	0800                	addi	s0,sp,16
  return bd_malloc(PGSIZE);
    80000b0c:	6505                	lui	a0,0x1
    80000b0e:	00006097          	auipc	ra,0x6
    80000b12:	332080e7          	jalr	818(ra) # 80006e40 <bd_malloc>
}
    80000b16:	60a2                	ld	ra,8(sp)
    80000b18:	6402                	ld	s0,0(sp)
    80000b1a:	0141                	addi	sp,sp,16
    80000b1c:	8082                	ret

0000000080000b1e <initlock>:

// assumes locks are not freed
void
initlock(struct spinlock *lk, char *name)
{
  lk->name = name;
    80000b1e:	e50c                	sd	a1,8(a0)
  lk->locked = 0;
    80000b20:	00052023          	sw	zero,0(a0) # 1000 <_entry-0x7ffff000>
  lk->cpu = 0;
    80000b24:	00053823          	sd	zero,16(a0)
  lk->nts = 0;
    80000b28:	02052423          	sw	zero,40(a0)
  lk->n = 0;
    80000b2c:	02052223          	sw	zero,36(a0)
  if(nlock >= NLOCK)
    80000b30:	0002d797          	auipc	a5,0x2d
    80000b34:	5407a783          	lw	a5,1344(a5) # 8002e070 <nlock>
    80000b38:	3e700713          	li	a4,999
    80000b3c:	02f74063          	blt	a4,a5,80000b5c <initlock+0x3e>
    panic("initlock");
  locks[nlock] = lk;
    80000b40:	00379693          	slli	a3,a5,0x3
    80000b44:	00013717          	auipc	a4,0x13
    80000b48:	f6470713          	addi	a4,a4,-156 # 80013aa8 <locks>
    80000b4c:	9736                	add	a4,a4,a3
    80000b4e:	e308                	sd	a0,0(a4)
  nlock++;
    80000b50:	2785                	addiw	a5,a5,1
    80000b52:	0002d717          	auipc	a4,0x2d
    80000b56:	50f72f23          	sw	a5,1310(a4) # 8002e070 <nlock>
    80000b5a:	8082                	ret
{
    80000b5c:	1141                	addi	sp,sp,-16
    80000b5e:	e406                	sd	ra,8(sp)
    80000b60:	e022                	sd	s0,0(sp)
    80000b62:	0800                	addi	s0,sp,16
    panic("initlock");
    80000b64:	00007517          	auipc	a0,0x7
    80000b68:	6ec50513          	addi	a0,a0,1772 # 80008250 <userret+0x1c0>
    80000b6c:	00000097          	auipc	ra,0x0
    80000b70:	bea080e7          	jalr	-1046(ra) # 80000756 <panic>

0000000080000b74 <dump_locks>:
}

void dump_locks(void){
    80000b74:	7139                	addi	sp,sp,-64
    80000b76:	fc06                	sd	ra,56(sp)
    80000b78:	f822                	sd	s0,48(sp)
    80000b7a:	f426                	sd	s1,40(sp)
    80000b7c:	f04a                	sd	s2,32(sp)
    80000b7e:	ec4e                	sd	s3,24(sp)
    80000b80:	e852                	sd	s4,16(sp)
    80000b82:	e456                	sd	s5,8(sp)
    80000b84:	0080                	addi	s0,sp,64
  printf_no_lock("LID\tLOCKED\tCPU\tPID\tNAME\t\tPC\n");
    80000b86:	00007517          	auipc	a0,0x7
    80000b8a:	6da50513          	addi	a0,a0,1754 # 80008260 <userret+0x1d0>
    80000b8e:	00000097          	auipc	ra,0x0
    80000b92:	e1a080e7          	jalr	-486(ra) # 800009a8 <printf_no_lock>
  for(int i = 0; i < nlock; i++){
    80000b96:	0002d797          	auipc	a5,0x2d
    80000b9a:	4da7a783          	lw	a5,1242(a5) # 8002e070 <nlock>
    80000b9e:	04f05d63          	blez	a5,80000bf8 <dump_locks+0x84>
    80000ba2:	00013917          	auipc	s2,0x13
    80000ba6:	f0690913          	addi	s2,s2,-250 # 80013aa8 <locks>
    80000baa:	4481                	li	s1,0
    if(locks[i]->locked)
      printf_no_lock("%d\t%d\t%d\t%d\t%s\t\t%p\n",
                     i,
                     locks[i]->locked,
                     locks[i]->cpu - cpus,
    80000bac:	00015a97          	auipc	s5,0x15
    80000bb0:	eeca8a93          	addi	s5,s5,-276 # 80015a98 <cpus>
      printf_no_lock("%d\t%d\t%d\t%d\t%s\t\t%p\n",
    80000bb4:	00007a17          	auipc	s4,0x7
    80000bb8:	6cca0a13          	addi	s4,s4,1740 # 80008280 <userret+0x1f0>
  for(int i = 0; i < nlock; i++){
    80000bbc:	0002d997          	auipc	s3,0x2d
    80000bc0:	4b498993          	addi	s3,s3,1204 # 8002e070 <nlock>
    80000bc4:	a02d                	j	80000bee <dump_locks+0x7a>
                     locks[i]->cpu - cpus,
    80000bc6:	6b14                	ld	a3,16(a4)
    80000bc8:	415686b3          	sub	a3,a3,s5
      printf_no_lock("%d\t%d\t%d\t%d\t%s\t\t%p\n",
    80000bcc:	01873803          	ld	a6,24(a4)
    80000bd0:	671c                	ld	a5,8(a4)
    80000bd2:	5318                	lw	a4,32(a4)
    80000bd4:	869d                	srai	a3,a3,0x7
    80000bd6:	85a6                	mv	a1,s1
    80000bd8:	8552                	mv	a0,s4
    80000bda:	00000097          	auipc	ra,0x0
    80000bde:	dce080e7          	jalr	-562(ra) # 800009a8 <printf_no_lock>
  for(int i = 0; i < nlock; i++){
    80000be2:	2485                	addiw	s1,s1,1
    80000be4:	0921                	addi	s2,s2,8
    80000be6:	0009a783          	lw	a5,0(s3)
    80000bea:	00f4d763          	bge	s1,a5,80000bf8 <dump_locks+0x84>
    if(locks[i]->locked)
    80000bee:	00093703          	ld	a4,0(s2)
    80000bf2:	4310                	lw	a2,0(a4)
    80000bf4:	d67d                	beqz	a2,80000be2 <dump_locks+0x6e>
    80000bf6:	bfc1                	j	80000bc6 <dump_locks+0x52>
                     locks[i]->pid,
                     locks[i]->name,
                     locks[i]->pc
        );
  }
}
    80000bf8:	70e2                	ld	ra,56(sp)
    80000bfa:	7442                	ld	s0,48(sp)
    80000bfc:	74a2                	ld	s1,40(sp)
    80000bfe:	7902                	ld	s2,32(sp)
    80000c00:	69e2                	ld	s3,24(sp)
    80000c02:	6a42                	ld	s4,16(sp)
    80000c04:	6aa2                	ld	s5,8(sp)
    80000c06:	6121                	addi	sp,sp,64
    80000c08:	8082                	ret

0000000080000c0a <holding>:
// Must be called with interrupts off.
int
holding(struct spinlock *lk)
{
  int r;
  r = (lk->locked && lk->cpu == mycpu());
    80000c0a:	411c                	lw	a5,0(a0)
    80000c0c:	e399                	bnez	a5,80000c12 <holding+0x8>
    80000c0e:	4501                	li	a0,0
  return r;
}
    80000c10:	8082                	ret
{
    80000c12:	1101                	addi	sp,sp,-32
    80000c14:	ec06                	sd	ra,24(sp)
    80000c16:	e822                	sd	s0,16(sp)
    80000c18:	e426                	sd	s1,8(sp)
    80000c1a:	1000                	addi	s0,sp,32
  r = (lk->locked && lk->cpu == mycpu());
    80000c1c:	6904                	ld	s1,16(a0)
    80000c1e:	00001097          	auipc	ra,0x1
    80000c22:	362080e7          	jalr	866(ra) # 80001f80 <mycpu>
    80000c26:	40a48533          	sub	a0,s1,a0
    80000c2a:	00153513          	seqz	a0,a0
}
    80000c2e:	60e2                	ld	ra,24(sp)
    80000c30:	6442                	ld	s0,16(sp)
    80000c32:	64a2                	ld	s1,8(sp)
    80000c34:	6105                	addi	sp,sp,32
    80000c36:	8082                	ret

0000000080000c38 <push_off>:
// it takes two pop_off()s to undo two push_off()s.  Also, if interrupts
// are initially off, then push_off, pop_off leaves them off.

void
push_off(void)
{
    80000c38:	1101                	addi	sp,sp,-32
    80000c3a:	ec06                	sd	ra,24(sp)
    80000c3c:	e822                	sd	s0,16(sp)
    80000c3e:	e426                	sd	s1,8(sp)
    80000c40:	1000                	addi	s0,sp,32
  asm volatile("csrr %0, sstatus" : "=r" (x) );
    80000c42:	100024f3          	csrr	s1,sstatus
  return (x & SSTATUS_SIE) != 0;
    80000c46:	8889                	andi	s1,s1,2
  int old = intr_get();
  if(old)
    80000c48:	c491                	beqz	s1,80000c54 <push_off+0x1c>
  asm volatile("csrr %0, sstatus" : "=r" (x) );
    80000c4a:	100027f3          	csrr	a5,sstatus
  w_sstatus(r_sstatus() & ~SSTATUS_SIE);
    80000c4e:	9bf5                	andi	a5,a5,-3
  asm volatile("csrw sstatus, %0" : : "r" (x));
    80000c50:	10079073          	csrw	sstatus,a5
    intr_off();
  if(mycpu()->noff == 0)
    80000c54:	00001097          	auipc	ra,0x1
    80000c58:	32c080e7          	jalr	812(ra) # 80001f80 <mycpu>
    80000c5c:	5d3c                	lw	a5,120(a0)
    80000c5e:	cf89                	beqz	a5,80000c78 <push_off+0x40>
    mycpu()->intena = old;
  mycpu()->noff += 1;
    80000c60:	00001097          	auipc	ra,0x1
    80000c64:	320080e7          	jalr	800(ra) # 80001f80 <mycpu>
    80000c68:	5d3c                	lw	a5,120(a0)
    80000c6a:	2785                	addiw	a5,a5,1
    80000c6c:	dd3c                	sw	a5,120(a0)
}
    80000c6e:	60e2                	ld	ra,24(sp)
    80000c70:	6442                	ld	s0,16(sp)
    80000c72:	64a2                	ld	s1,8(sp)
    80000c74:	6105                	addi	sp,sp,32
    80000c76:	8082                	ret
    mycpu()->intena = old;
    80000c78:	00001097          	auipc	ra,0x1
    80000c7c:	308080e7          	jalr	776(ra) # 80001f80 <mycpu>
  return (x & SSTATUS_SIE) != 0;
    80000c80:	009034b3          	snez	s1,s1
    80000c84:	dd64                	sw	s1,124(a0)
    80000c86:	bfe9                	j	80000c60 <push_off+0x28>

0000000080000c88 <acquire>:
{
    80000c88:	7159                	addi	sp,sp,-112
    80000c8a:	f486                	sd	ra,104(sp)
    80000c8c:	f0a2                	sd	s0,96(sp)
    80000c8e:	eca6                	sd	s1,88(sp)
    80000c90:	e8ca                	sd	s2,80(sp)
    80000c92:	e4ce                	sd	s3,72(sp)
    80000c94:	e0d2                	sd	s4,64(sp)
    80000c96:	fc56                	sd	s5,56(sp)
    80000c98:	f85a                	sd	s6,48(sp)
    80000c9a:	f45e                	sd	s7,40(sp)
    80000c9c:	f062                	sd	s8,32(sp)
    80000c9e:	ec66                	sd	s9,24(sp)
    80000ca0:	e86a                	sd	s10,16(sp)
    80000ca2:	e46e                	sd	s11,8(sp)
    80000ca4:	1880                	addi	s0,sp,112
    80000ca6:	84aa                	mv	s1,a0
  asm volatile("mv %0, ra" : "=r" (ra));
    80000ca8:	8a86                	mv	s5,ra
  ra -= 4;
    80000caa:	1af1                	addi	s5,s5,-4
  push_off(); // disable interrupts to avoid deadlock.
    80000cac:	00000097          	auipc	ra,0x0
    80000cb0:	f8c080e7          	jalr	-116(ra) # 80000c38 <push_off>
  if(holding(lk)){
    80000cb4:	8526                	mv	a0,s1
    80000cb6:	00000097          	auipc	ra,0x0
    80000cba:	f54080e7          	jalr	-172(ra) # 80000c0a <holding>
    80000cbe:	e121                	bnez	a0,80000cfe <acquire+0x76>
    80000cc0:	892a                	mv	s2,a0
  __sync_fetch_and_add(&(lk->n), 1);
    80000cc2:	4785                	li	a5,1
    80000cc4:	02448713          	addi	a4,s1,36
    80000cc8:	0f50000f          	fence	iorw,ow
    80000ccc:	04f7202f          	amoadd.w.aq	zero,a5,(a4)
  int warned = 0;
    80000cd0:	872a                	mv	a4,a0
  while(__sync_lock_test_and_set(&lk->locked, 1) != 0) {
    80000cd2:	4985                	li	s3,1
    if(nbtries > MAXTRIES && !warned){
    80000cd4:	6a61                	lui	s4,0x18
    80000cd6:	6a0a0a13          	addi	s4,s4,1696 # 186a0 <_entry-0x7ffe7960>
      printf_no_lock("CPU %d: Blocked while acquiring %s (%p)\n", cpuid(), lk->name, lk);
    80000cda:	00007d17          	auipc	s10,0x7
    80000cde:	646d0d13          	addi	s10,s10,1606 # 80008320 <userret+0x290>
                     lk->cpu - cpus,
    80000ce2:	00015c97          	auipc	s9,0x15
    80000ce6:	db6c8c93          	addi	s9,s9,-586 # 80015a98 <cpus>
      printf_no_lock("process %d (CPU %d) took it at pc=%p \n", lk->pid,
    80000cea:	00007c17          	auipc	s8,0x7
    80000cee:	5d6c0c13          	addi	s8,s8,1494 # 800082c0 <userret+0x230>
      printf_no_lock("I am myself at pc=%p in pid=%d on CPU %d\n",
    80000cf2:	5bfd                	li	s7,-1
    80000cf4:	00007b17          	auipc	s6,0x7
    80000cf8:	5f4b0b13          	addi	s6,s6,1524 # 800082e8 <userret+0x258>
  while(__sync_lock_test_and_set(&lk->locked, 1) != 0) {
    80000cfc:	a84d                	j	80000dae <acquire+0x126>
    printf_no_lock("requesting %s (%p) but already have it\n", lk->name, lk);
    80000cfe:	8626                	mv	a2,s1
    80000d00:	648c                	ld	a1,8(s1)
    80000d02:	00007517          	auipc	a0,0x7
    80000d06:	59650513          	addi	a0,a0,1430 # 80008298 <userret+0x208>
    80000d0a:	00000097          	auipc	ra,0x0
    80000d0e:	c9e080e7          	jalr	-866(ra) # 800009a8 <printf_no_lock>
                   lk->cpu - cpus,
    80000d12:	6890                	ld	a2,16(s1)
    80000d14:	00015797          	auipc	a5,0x15
    80000d18:	d8478793          	addi	a5,a5,-636 # 80015a98 <cpus>
    80000d1c:	8e1d                	sub	a2,a2,a5
    printf_no_lock("process %d (CPU %d) took it at pc=%p \n", lk->pid,
    80000d1e:	6c94                	ld	a3,24(s1)
    80000d20:	861d                	srai	a2,a2,0x7
    80000d22:	508c                	lw	a1,32(s1)
    80000d24:	00007517          	auipc	a0,0x7
    80000d28:	59c50513          	addi	a0,a0,1436 # 800082c0 <userret+0x230>
    80000d2c:	00000097          	auipc	ra,0x0
    80000d30:	c7c080e7          	jalr	-900(ra) # 800009a8 <printf_no_lock>
                   myproc() ? myproc()->pid : -1,
    80000d34:	00001097          	auipc	ra,0x1
    80000d38:	268080e7          	jalr	616(ra) # 80001f9c <myproc>
    printf_no_lock("I am myself at pc=%p in pid=%d on CPU %d\n",
    80000d3c:	54fd                	li	s1,-1
    80000d3e:	c511                	beqz	a0,80000d4a <acquire+0xc2>
                   myproc() ? myproc()->pid : -1,
    80000d40:	00001097          	auipc	ra,0x1
    80000d44:	25c080e7          	jalr	604(ra) # 80001f9c <myproc>
    printf_no_lock("I am myself at pc=%p in pid=%d on CPU %d\n",
    80000d48:	4924                	lw	s1,80(a0)
    80000d4a:	00001097          	auipc	ra,0x1
    80000d4e:	226080e7          	jalr	550(ra) # 80001f70 <cpuid>
    80000d52:	86aa                	mv	a3,a0
    80000d54:	8626                	mv	a2,s1
    80000d56:	85d6                	mv	a1,s5
    80000d58:	00007517          	auipc	a0,0x7
    80000d5c:	59050513          	addi	a0,a0,1424 # 800082e8 <userret+0x258>
    80000d60:	00000097          	auipc	ra,0x0
    80000d64:	c48080e7          	jalr	-952(ra) # 800009a8 <printf_no_lock>
    procdump();
    80000d68:	00002097          	auipc	ra,0x2
    80000d6c:	d70080e7          	jalr	-656(ra) # 80002ad8 <procdump>
    panic("acquire");
    80000d70:	00007517          	auipc	a0,0x7
    80000d74:	5a850513          	addi	a0,a0,1448 # 80008318 <userret+0x288>
    80000d78:	00000097          	auipc	ra,0x0
    80000d7c:	9de080e7          	jalr	-1570(ra) # 80000756 <panic>
      printf_no_lock("I am myself at pc=%p in pid=%d on CPU %d\n",
    80000d80:	00001097          	auipc	ra,0x1
    80000d84:	1f0080e7          	jalr	496(ra) # 80001f70 <cpuid>
    80000d88:	86aa                	mv	a3,a0
    80000d8a:	866e                	mv	a2,s11
    80000d8c:	85d6                	mv	a1,s5
    80000d8e:	855a                	mv	a0,s6
    80000d90:	00000097          	auipc	ra,0x0
    80000d94:	c18080e7          	jalr	-1000(ra) # 800009a8 <printf_no_lock>
      procdump();
    80000d98:	00002097          	auipc	ra,0x2
    80000d9c:	d40080e7          	jalr	-704(ra) # 80002ad8 <procdump>
      warned = 1;
    80000da0:	4705                	li	a4,1
     __sync_fetch_and_add(&lk->nts, 1);
    80000da2:	02848793          	addi	a5,s1,40
    80000da6:	0f50000f          	fence	iorw,ow
    80000daa:	0537a02f          	amoadd.w.aq	zero,s3,(a5)
  while(__sync_lock_test_and_set(&lk->locked, 1) != 0) {
    80000dae:	87ce                	mv	a5,s3
    80000db0:	0cf4a7af          	amoswap.w.aq	a5,a5,(s1)
    80000db4:	2781                	sext.w	a5,a5
    80000db6:	cba9                	beqz	a5,80000e08 <acquire+0x180>
    nbtries++;
    80000db8:	2905                	addiw	s2,s2,1
    if(nbtries > MAXTRIES && !warned){
    80000dba:	ff2a54e3          	bge	s4,s2,80000da2 <acquire+0x11a>
    80000dbe:	f375                	bnez	a4,80000da2 <acquire+0x11a>
      printf_no_lock("CPU %d: Blocked while acquiring %s (%p)\n", cpuid(), lk->name, lk);
    80000dc0:	00001097          	auipc	ra,0x1
    80000dc4:	1b0080e7          	jalr	432(ra) # 80001f70 <cpuid>
    80000dc8:	85aa                	mv	a1,a0
    80000dca:	86a6                	mv	a3,s1
    80000dcc:	6490                	ld	a2,8(s1)
    80000dce:	856a                	mv	a0,s10
    80000dd0:	00000097          	auipc	ra,0x0
    80000dd4:	bd8080e7          	jalr	-1064(ra) # 800009a8 <printf_no_lock>
                     lk->cpu - cpus,
    80000dd8:	6890                	ld	a2,16(s1)
    80000dda:	41960633          	sub	a2,a2,s9
      printf_no_lock("process %d (CPU %d) took it at pc=%p \n", lk->pid,
    80000dde:	6c94                	ld	a3,24(s1)
    80000de0:	861d                	srai	a2,a2,0x7
    80000de2:	508c                	lw	a1,32(s1)
    80000de4:	8562                	mv	a0,s8
    80000de6:	00000097          	auipc	ra,0x0
    80000dea:	bc2080e7          	jalr	-1086(ra) # 800009a8 <printf_no_lock>
                     myproc() ? myproc()->pid : -1,
    80000dee:	00001097          	auipc	ra,0x1
    80000df2:	1ae080e7          	jalr	430(ra) # 80001f9c <myproc>
      printf_no_lock("I am myself at pc=%p in pid=%d on CPU %d\n",
    80000df6:	8dde                	mv	s11,s7
    80000df8:	d541                	beqz	a0,80000d80 <acquire+0xf8>
                     myproc() ? myproc()->pid : -1,
    80000dfa:	00001097          	auipc	ra,0x1
    80000dfe:	1a2080e7          	jalr	418(ra) # 80001f9c <myproc>
      printf_no_lock("I am myself at pc=%p in pid=%d on CPU %d\n",
    80000e02:	05052d83          	lw	s11,80(a0)
    80000e06:	bfad                	j	80000d80 <acquire+0xf8>
  if(warned){
    80000e08:	e729                	bnez	a4,80000e52 <acquire+0x1ca>
  __sync_synchronize();
    80000e0a:	0ff0000f          	fence
  lk->cpu = mycpu();
    80000e0e:	00001097          	auipc	ra,0x1
    80000e12:	172080e7          	jalr	370(ra) # 80001f80 <mycpu>
    80000e16:	e888                	sd	a0,16(s1)
  lk->pc = ra;
    80000e18:	0154bc23          	sd	s5,24(s1)
  lk->pid = myproc() ? myproc()->pid : -1;
    80000e1c:	00001097          	auipc	ra,0x1
    80000e20:	180080e7          	jalr	384(ra) # 80001f9c <myproc>
    80000e24:	57fd                	li	a5,-1
    80000e26:	c511                	beqz	a0,80000e32 <acquire+0x1aa>
    80000e28:	00001097          	auipc	ra,0x1
    80000e2c:	174080e7          	jalr	372(ra) # 80001f9c <myproc>
    80000e30:	493c                	lw	a5,80(a0)
    80000e32:	d09c                	sw	a5,32(s1)
}
    80000e34:	70a6                	ld	ra,104(sp)
    80000e36:	7406                	ld	s0,96(sp)
    80000e38:	64e6                	ld	s1,88(sp)
    80000e3a:	6946                	ld	s2,80(sp)
    80000e3c:	69a6                	ld	s3,72(sp)
    80000e3e:	6a06                	ld	s4,64(sp)
    80000e40:	7ae2                	ld	s5,56(sp)
    80000e42:	7b42                	ld	s6,48(sp)
    80000e44:	7ba2                	ld	s7,40(sp)
    80000e46:	7c02                	ld	s8,32(sp)
    80000e48:	6ce2                	ld	s9,24(sp)
    80000e4a:	6d42                	ld	s10,16(sp)
    80000e4c:	6da2                	ld	s11,8(sp)
    80000e4e:	6165                	addi	sp,sp,112
    80000e50:	8082                	ret
    printf_no_lock("CPU %d: Finally acquired %s (%p) after %d tries\n", cpuid(), lk->name, lk, nbtries);
    80000e52:	00001097          	auipc	ra,0x1
    80000e56:	11e080e7          	jalr	286(ra) # 80001f70 <cpuid>
    80000e5a:	85aa                	mv	a1,a0
    80000e5c:	874a                	mv	a4,s2
    80000e5e:	86a6                	mv	a3,s1
    80000e60:	6490                	ld	a2,8(s1)
    80000e62:	00007517          	auipc	a0,0x7
    80000e66:	4ee50513          	addi	a0,a0,1262 # 80008350 <userret+0x2c0>
    80000e6a:	00000097          	auipc	ra,0x0
    80000e6e:	b3e080e7          	jalr	-1218(ra) # 800009a8 <printf_no_lock>
    80000e72:	bf61                	j	80000e0a <acquire+0x182>

0000000080000e74 <pop_off>:

void
pop_off(void)
{
    80000e74:	1141                	addi	sp,sp,-16
    80000e76:	e406                	sd	ra,8(sp)
    80000e78:	e022                	sd	s0,0(sp)
    80000e7a:	0800                	addi	s0,sp,16
  asm volatile("csrr %0, sstatus" : "=r" (x) );
    80000e7c:	100027f3          	csrr	a5,sstatus
  return (x & SSTATUS_SIE) != 0;
    80000e80:	8b89                	andi	a5,a5,2
  if(intr_get())
    80000e82:	eb8d                	bnez	a5,80000eb4 <pop_off+0x40>
    panic("pop_off - interruptible");
  struct cpu *c = mycpu();
    80000e84:	00001097          	auipc	ra,0x1
    80000e88:	0fc080e7          	jalr	252(ra) # 80001f80 <mycpu>
  if(c->noff < 1)
    80000e8c:	5d3c                	lw	a5,120(a0)
    80000e8e:	02f05b63          	blez	a5,80000ec4 <pop_off+0x50>
    panic("pop_off");
  c->noff -= 1;
    80000e92:	37fd                	addiw	a5,a5,-1
    80000e94:	0007871b          	sext.w	a4,a5
    80000e98:	dd3c                	sw	a5,120(a0)
  if(c->noff == 0 && c->intena)
    80000e9a:	eb09                	bnez	a4,80000eac <pop_off+0x38>
    80000e9c:	5d7c                	lw	a5,124(a0)
    80000e9e:	c799                	beqz	a5,80000eac <pop_off+0x38>
  asm volatile("csrr %0, sstatus" : "=r" (x) );
    80000ea0:	100027f3          	csrr	a5,sstatus
  w_sstatus(r_sstatus() | SSTATUS_SIE);
    80000ea4:	0027e793          	ori	a5,a5,2
  asm volatile("csrw sstatus, %0" : : "r" (x));
    80000ea8:	10079073          	csrw	sstatus,a5
    intr_on();
}
    80000eac:	60a2                	ld	ra,8(sp)
    80000eae:	6402                	ld	s0,0(sp)
    80000eb0:	0141                	addi	sp,sp,16
    80000eb2:	8082                	ret
    panic("pop_off - interruptible");
    80000eb4:	00007517          	auipc	a0,0x7
    80000eb8:	4d450513          	addi	a0,a0,1236 # 80008388 <userret+0x2f8>
    80000ebc:	00000097          	auipc	ra,0x0
    80000ec0:	89a080e7          	jalr	-1894(ra) # 80000756 <panic>
    panic("pop_off");
    80000ec4:	00007517          	auipc	a0,0x7
    80000ec8:	4dc50513          	addi	a0,a0,1244 # 800083a0 <userret+0x310>
    80000ecc:	00000097          	auipc	ra,0x0
    80000ed0:	88a080e7          	jalr	-1910(ra) # 80000756 <panic>

0000000080000ed4 <release>:
{
    80000ed4:	1101                	addi	sp,sp,-32
    80000ed6:	ec06                	sd	ra,24(sp)
    80000ed8:	e822                	sd	s0,16(sp)
    80000eda:	e426                	sd	s1,8(sp)
    80000edc:	1000                	addi	s0,sp,32
    80000ede:	84aa                	mv	s1,a0
  if(!holding(lk))
    80000ee0:	00000097          	auipc	ra,0x0
    80000ee4:	d2a080e7          	jalr	-726(ra) # 80000c0a <holding>
    80000ee8:	c115                	beqz	a0,80000f0c <release+0x38>
  lk->cpu = 0;
    80000eea:	0004b823          	sd	zero,16(s1)
  __sync_synchronize();
    80000eee:	0ff0000f          	fence
  __sync_lock_release(&lk->locked);
    80000ef2:	0f50000f          	fence	iorw,ow
    80000ef6:	0804a02f          	amoswap.w	zero,zero,(s1)
  pop_off();
    80000efa:	00000097          	auipc	ra,0x0
    80000efe:	f7a080e7          	jalr	-134(ra) # 80000e74 <pop_off>
}
    80000f02:	60e2                	ld	ra,24(sp)
    80000f04:	6442                	ld	s0,16(sp)
    80000f06:	64a2                	ld	s1,8(sp)
    80000f08:	6105                	addi	sp,sp,32
    80000f0a:	8082                	ret
    panic("release");
    80000f0c:	00007517          	auipc	a0,0x7
    80000f10:	49c50513          	addi	a0,a0,1180 # 800083a8 <userret+0x318>
    80000f14:	00000097          	auipc	ra,0x0
    80000f18:	842080e7          	jalr	-1982(ra) # 80000756 <panic>

0000000080000f1c <print_lock>:

void
print_lock(struct spinlock *lk)
{
  if(lk->n > 0) 
    80000f1c:	5154                	lw	a3,36(a0)
    80000f1e:	e291                	bnez	a3,80000f22 <print_lock+0x6>
    80000f20:	8082                	ret
{
    80000f22:	1141                	addi	sp,sp,-16
    80000f24:	e406                	sd	ra,8(sp)
    80000f26:	e022                	sd	s0,0(sp)
    80000f28:	0800                	addi	s0,sp,16
    printf("lock: %s: #test-and-set %d #acquire() %d\n", lk->name, lk->nts, lk->n);
    80000f2a:	5510                	lw	a2,40(a0)
    80000f2c:	650c                	ld	a1,8(a0)
    80000f2e:	00007517          	auipc	a0,0x7
    80000f32:	48250513          	addi	a0,a0,1154 # 800083b0 <userret+0x320>
    80000f36:	00000097          	auipc	ra,0x0
    80000f3a:	a36080e7          	jalr	-1482(ra) # 8000096c <printf>
}
    80000f3e:	60a2                	ld	ra,8(sp)
    80000f40:	6402                	ld	s0,0(sp)
    80000f42:	0141                	addi	sp,sp,16
    80000f44:	8082                	ret

0000000080000f46 <sys_ntas>:

uint64
sys_ntas(void)
{
    80000f46:	711d                	addi	sp,sp,-96
    80000f48:	ec86                	sd	ra,88(sp)
    80000f4a:	e8a2                	sd	s0,80(sp)
    80000f4c:	e4a6                	sd	s1,72(sp)
    80000f4e:	e0ca                	sd	s2,64(sp)
    80000f50:	fc4e                	sd	s3,56(sp)
    80000f52:	f852                	sd	s4,48(sp)
    80000f54:	f456                	sd	s5,40(sp)
    80000f56:	f05a                	sd	s6,32(sp)
    80000f58:	ec5e                	sd	s7,24(sp)
    80000f5a:	e862                	sd	s8,16(sp)
    80000f5c:	1080                	addi	s0,sp,96
  int zero = 0;
    80000f5e:	fa042623          	sw	zero,-84(s0)
  int tot = 0;
  
  if (argint(0, &zero) < 0) {
    80000f62:	fac40593          	addi	a1,s0,-84
    80000f66:	4501                	li	a0,0
    80000f68:	00002097          	auipc	ra,0x2
    80000f6c:	2a8080e7          	jalr	680(ra) # 80003210 <argint>
    80000f70:	14054e63          	bltz	a0,800010cc <sys_ntas+0x186>
    return -1;
  }
  if(zero == 0) {
    80000f74:	fac42783          	lw	a5,-84(s0)
    80000f78:	e795                	bnez	a5,80000fa4 <sys_ntas+0x5e>
    80000f7a:	00013797          	auipc	a5,0x13
    80000f7e:	b2e78793          	addi	a5,a5,-1234 # 80013aa8 <locks>
    80000f82:	00015697          	auipc	a3,0x15
    80000f86:	a6668693          	addi	a3,a3,-1434 # 800159e8 <prio>
    for(int i = 0; i < NLOCK; i++) {
      if(locks[i] == 0)
    80000f8a:	6398                	ld	a4,0(a5)
    80000f8c:	14070263          	beqz	a4,800010d0 <sys_ntas+0x18a>
        break;
      locks[i]->nts = 0;
    80000f90:	02072423          	sw	zero,40(a4)
      locks[i]->n = 0;
    80000f94:	6398                	ld	a4,0(a5)
    80000f96:	02072223          	sw	zero,36(a4)
    for(int i = 0; i < NLOCK; i++) {
    80000f9a:	07a1                	addi	a5,a5,8
    80000f9c:	fed797e3          	bne	a5,a3,80000f8a <sys_ntas+0x44>
    }
    return 0;
    80000fa0:	4501                	li	a0,0
    80000fa2:	aa09                	j	800010b4 <sys_ntas+0x16e>
  }

  printf("=== lock kmem/bcache stats\n");
    80000fa4:	00007517          	auipc	a0,0x7
    80000fa8:	43c50513          	addi	a0,a0,1084 # 800083e0 <userret+0x350>
    80000fac:	00000097          	auipc	ra,0x0
    80000fb0:	9c0080e7          	jalr	-1600(ra) # 8000096c <printf>
  for(int i = 0; i < NLOCK; i++) {
    80000fb4:	00013b17          	auipc	s6,0x13
    80000fb8:	af4b0b13          	addi	s6,s6,-1292 # 80013aa8 <locks>
    80000fbc:	00015b97          	auipc	s7,0x15
    80000fc0:	a2cb8b93          	addi	s7,s7,-1492 # 800159e8 <prio>
  printf("=== lock kmem/bcache stats\n");
    80000fc4:	84da                	mv	s1,s6
  int tot = 0;
    80000fc6:	4981                	li	s3,0
    if(locks[i] == 0)
      break;
    if(strncmp(locks[i]->name, "bcache", strlen("bcache")) == 0 ||
    80000fc8:	00007a17          	auipc	s4,0x7
    80000fcc:	438a0a13          	addi	s4,s4,1080 # 80008400 <userret+0x370>
       strncmp(locks[i]->name, "kmem", strlen("kmem")) == 0) {
    80000fd0:	00007c17          	auipc	s8,0x7
    80000fd4:	438c0c13          	addi	s8,s8,1080 # 80008408 <userret+0x378>
    80000fd8:	a829                	j	80000ff2 <sys_ntas+0xac>
      tot += locks[i]->nts;
    80000fda:	00093503          	ld	a0,0(s2)
    80000fde:	551c                	lw	a5,40(a0)
    80000fe0:	013789bb          	addw	s3,a5,s3
      print_lock(locks[i]);
    80000fe4:	00000097          	auipc	ra,0x0
    80000fe8:	f38080e7          	jalr	-200(ra) # 80000f1c <print_lock>
  for(int i = 0; i < NLOCK; i++) {
    80000fec:	04a1                	addi	s1,s1,8
    80000fee:	05748763          	beq	s1,s7,8000103c <sys_ntas+0xf6>
    if(locks[i] == 0)
    80000ff2:	8926                	mv	s2,s1
    80000ff4:	609c                	ld	a5,0(s1)
    80000ff6:	c3b9                	beqz	a5,8000103c <sys_ntas+0xf6>
    if(strncmp(locks[i]->name, "bcache", strlen("bcache")) == 0 ||
    80000ff8:	0087ba83          	ld	s5,8(a5)
    80000ffc:	8552                	mv	a0,s4
    80000ffe:	00000097          	auipc	ra,0x0
    80001002:	25e080e7          	jalr	606(ra) # 8000125c <strlen>
    80001006:	0005061b          	sext.w	a2,a0
    8000100a:	85d2                	mv	a1,s4
    8000100c:	8556                	mv	a0,s5
    8000100e:	00000097          	auipc	ra,0x0
    80001012:	1a2080e7          	jalr	418(ra) # 800011b0 <strncmp>
    80001016:	d171                	beqz	a0,80000fda <sys_ntas+0x94>
       strncmp(locks[i]->name, "kmem", strlen("kmem")) == 0) {
    80001018:	609c                	ld	a5,0(s1)
    8000101a:	0087ba83          	ld	s5,8(a5)
    8000101e:	8562                	mv	a0,s8
    80001020:	00000097          	auipc	ra,0x0
    80001024:	23c080e7          	jalr	572(ra) # 8000125c <strlen>
    80001028:	0005061b          	sext.w	a2,a0
    8000102c:	85e2                	mv	a1,s8
    8000102e:	8556                	mv	a0,s5
    80001030:	00000097          	auipc	ra,0x0
    80001034:	180080e7          	jalr	384(ra) # 800011b0 <strncmp>
    if(strncmp(locks[i]->name, "bcache", strlen("bcache")) == 0 ||
    80001038:	f955                	bnez	a0,80000fec <sys_ntas+0xa6>
    8000103a:	b745                	j	80000fda <sys_ntas+0x94>
    }
  }

  printf("=== top 5 contended locks:\n");
    8000103c:	00007517          	auipc	a0,0x7
    80001040:	3d450513          	addi	a0,a0,980 # 80008410 <userret+0x380>
    80001044:	00000097          	auipc	ra,0x0
    80001048:	928080e7          	jalr	-1752(ra) # 8000096c <printf>
    8000104c:	4a15                	li	s4,5
  int last = 100000000;
    8000104e:	05f5e537          	lui	a0,0x5f5e
    80001052:	10050513          	addi	a0,a0,256 # 5f5e100 <_entry-0x7a0a1f00>
  // stupid way to compute top 5 contended locks
  for(int t= 0; t < 5; t++) {
    int top = 0;
    for(int i = 0; i < NLOCK; i++) {
    80001056:	4a81                	li	s5,0
      if(locks[i] == 0)
        break;
      if(locks[i]->nts > locks[top]->nts && locks[i]->nts < last) {
    80001058:	00013497          	auipc	s1,0x13
    8000105c:	a5048493          	addi	s1,s1,-1456 # 80013aa8 <locks>
    for(int i = 0; i < NLOCK; i++) {
    80001060:	3e800913          	li	s2,1000
    80001064:	a091                	j	800010a8 <sys_ntas+0x162>
    80001066:	2705                	addiw	a4,a4,1
    80001068:	06a1                	addi	a3,a3,8
    8000106a:	03270063          	beq	a4,s2,8000108a <sys_ntas+0x144>
      if(locks[i] == 0)
    8000106e:	629c                	ld	a5,0(a3)
    80001070:	cf89                	beqz	a5,8000108a <sys_ntas+0x144>
      if(locks[i]->nts > locks[top]->nts && locks[i]->nts < last) {
    80001072:	5790                	lw	a2,40(a5)
    80001074:	00359793          	slli	a5,a1,0x3
    80001078:	97a6                	add	a5,a5,s1
    8000107a:	639c                	ld	a5,0(a5)
    8000107c:	579c                	lw	a5,40(a5)
    8000107e:	fec7f4e3          	bgeu	a5,a2,80001066 <sys_ntas+0x120>
    80001082:	fea672e3          	bgeu	a2,a0,80001066 <sys_ntas+0x120>
    80001086:	85ba                	mv	a1,a4
    80001088:	bff9                	j	80001066 <sys_ntas+0x120>
        top = i;
      }
    }
    print_lock(locks[top]);
    8000108a:	058e                	slli	a1,a1,0x3
    8000108c:	00b48bb3          	add	s7,s1,a1
    80001090:	000bb503          	ld	a0,0(s7)
    80001094:	00000097          	auipc	ra,0x0
    80001098:	e88080e7          	jalr	-376(ra) # 80000f1c <print_lock>
    last = locks[top]->nts;
    8000109c:	000bb783          	ld	a5,0(s7)
    800010a0:	5788                	lw	a0,40(a5)
  for(int t= 0; t < 5; t++) {
    800010a2:	3a7d                	addiw	s4,s4,-1
    800010a4:	000a0763          	beqz	s4,800010b2 <sys_ntas+0x16c>
  int tot = 0;
    800010a8:	86da                	mv	a3,s6
    for(int i = 0; i < NLOCK; i++) {
    800010aa:	8756                	mv	a4,s5
    int top = 0;
    800010ac:	85d6                	mv	a1,s5
      if(locks[i]->nts > locks[top]->nts && locks[i]->nts < last) {
    800010ae:	2501                	sext.w	a0,a0
    800010b0:	bf7d                	j	8000106e <sys_ntas+0x128>
  }
  return tot;
    800010b2:	854e                	mv	a0,s3
}
    800010b4:	60e6                	ld	ra,88(sp)
    800010b6:	6446                	ld	s0,80(sp)
    800010b8:	64a6                	ld	s1,72(sp)
    800010ba:	6906                	ld	s2,64(sp)
    800010bc:	79e2                	ld	s3,56(sp)
    800010be:	7a42                	ld	s4,48(sp)
    800010c0:	7aa2                	ld	s5,40(sp)
    800010c2:	7b02                	ld	s6,32(sp)
    800010c4:	6be2                	ld	s7,24(sp)
    800010c6:	6c42                	ld	s8,16(sp)
    800010c8:	6125                	addi	sp,sp,96
    800010ca:	8082                	ret
    return -1;
    800010cc:	557d                	li	a0,-1
    800010ce:	b7dd                	j	800010b4 <sys_ntas+0x16e>
    return 0;
    800010d0:	4501                	li	a0,0
    800010d2:	b7cd                	j	800010b4 <sys_ntas+0x16e>

00000000800010d4 <memset>:
#include "types.h"
#include "defs.h"

void*
memset(void *dst, int c, uint n)
{
    800010d4:	1141                	addi	sp,sp,-16
    800010d6:	e422                	sd	s0,8(sp)
    800010d8:	0800                	addi	s0,sp,16
  char *cdst = (char *) dst;
  int i;
  for(i = 0; i < n; i++){
    800010da:	ce09                	beqz	a2,800010f4 <memset+0x20>
    800010dc:	87aa                	mv	a5,a0
    800010de:	fff6071b          	addiw	a4,a2,-1
    800010e2:	1702                	slli	a4,a4,0x20
    800010e4:	9301                	srli	a4,a4,0x20
    800010e6:	0705                	addi	a4,a4,1
    800010e8:	972a                	add	a4,a4,a0
    cdst[i] = c;
    800010ea:	00b78023          	sb	a1,0(a5)
  for(i = 0; i < n; i++){
    800010ee:	0785                	addi	a5,a5,1
    800010f0:	fee79de3          	bne	a5,a4,800010ea <memset+0x16>
  }
  return dst;
}
    800010f4:	6422                	ld	s0,8(sp)
    800010f6:	0141                	addi	sp,sp,16
    800010f8:	8082                	ret

00000000800010fa <memcmp>:

int
memcmp(const void *v1, const void *v2, uint n)
{
    800010fa:	1141                	addi	sp,sp,-16
    800010fc:	e422                	sd	s0,8(sp)
    800010fe:	0800                	addi	s0,sp,16
  const uchar *s1, *s2;

  s1 = v1;
  s2 = v2;
  while(n-- > 0){
    80001100:	ca05                	beqz	a2,80001130 <memcmp+0x36>
    80001102:	fff6069b          	addiw	a3,a2,-1
    80001106:	1682                	slli	a3,a3,0x20
    80001108:	9281                	srli	a3,a3,0x20
    8000110a:	0685                	addi	a3,a3,1
    8000110c:	96aa                	add	a3,a3,a0
    if(*s1 != *s2)
    8000110e:	00054783          	lbu	a5,0(a0)
    80001112:	0005c703          	lbu	a4,0(a1)
    80001116:	00e79863          	bne	a5,a4,80001126 <memcmp+0x2c>
      return *s1 - *s2;
    s1++, s2++;
    8000111a:	0505                	addi	a0,a0,1
    8000111c:	0585                	addi	a1,a1,1
  while(n-- > 0){
    8000111e:	fed518e3          	bne	a0,a3,8000110e <memcmp+0x14>
  }

  return 0;
    80001122:	4501                	li	a0,0
    80001124:	a019                	j	8000112a <memcmp+0x30>
      return *s1 - *s2;
    80001126:	40e7853b          	subw	a0,a5,a4
}
    8000112a:	6422                	ld	s0,8(sp)
    8000112c:	0141                	addi	sp,sp,16
    8000112e:	8082                	ret
  return 0;
    80001130:	4501                	li	a0,0
    80001132:	bfe5                	j	8000112a <memcmp+0x30>

0000000080001134 <memmove>:

void*
memmove(void *dst, const void *src, uint n)
{
    80001134:	1141                	addi	sp,sp,-16
    80001136:	e422                	sd	s0,8(sp)
    80001138:	0800                	addi	s0,sp,16
  const char *s;
  char *d;

  s = src;
  d = dst;
  if(s < d && s + n > d){
    8000113a:	00a5f963          	bgeu	a1,a0,8000114c <memmove+0x18>
    8000113e:	02061713          	slli	a4,a2,0x20
    80001142:	9301                	srli	a4,a4,0x20
    80001144:	00e587b3          	add	a5,a1,a4
    80001148:	02f56563          	bltu	a0,a5,80001172 <memmove+0x3e>
    s += n;
    d += n;
    while(n-- > 0)
      *--d = *--s;
  } else
    while(n-- > 0)
    8000114c:	fff6069b          	addiw	a3,a2,-1
    80001150:	ce11                	beqz	a2,8000116c <memmove+0x38>
    80001152:	1682                	slli	a3,a3,0x20
    80001154:	9281                	srli	a3,a3,0x20
    80001156:	0685                	addi	a3,a3,1
    80001158:	96ae                	add	a3,a3,a1
    8000115a:	87aa                	mv	a5,a0
      *d++ = *s++;
    8000115c:	0585                	addi	a1,a1,1
    8000115e:	0785                	addi	a5,a5,1
    80001160:	fff5c703          	lbu	a4,-1(a1)
    80001164:	fee78fa3          	sb	a4,-1(a5)
    while(n-- > 0)
    80001168:	fed59ae3          	bne	a1,a3,8000115c <memmove+0x28>

  return dst;
}
    8000116c:	6422                	ld	s0,8(sp)
    8000116e:	0141                	addi	sp,sp,16
    80001170:	8082                	ret
    d += n;
    80001172:	972a                	add	a4,a4,a0
    while(n-- > 0)
    80001174:	fff6069b          	addiw	a3,a2,-1
    80001178:	da75                	beqz	a2,8000116c <memmove+0x38>
    8000117a:	02069613          	slli	a2,a3,0x20
    8000117e:	9201                	srli	a2,a2,0x20
    80001180:	fff64613          	not	a2,a2
    80001184:	963e                	add	a2,a2,a5
      *--d = *--s;
    80001186:	17fd                	addi	a5,a5,-1
    80001188:	177d                	addi	a4,a4,-1
    8000118a:	0007c683          	lbu	a3,0(a5)
    8000118e:	00d70023          	sb	a3,0(a4)
    while(n-- > 0)
    80001192:	fec79ae3          	bne	a5,a2,80001186 <memmove+0x52>
    80001196:	bfd9                	j	8000116c <memmove+0x38>

0000000080001198 <memcpy>:

// memcpy exists to placate GCC.  Use memmove.
void*
memcpy(void *dst, const void *src, uint n)
{
    80001198:	1141                	addi	sp,sp,-16
    8000119a:	e406                	sd	ra,8(sp)
    8000119c:	e022                	sd	s0,0(sp)
    8000119e:	0800                	addi	s0,sp,16
  return memmove(dst, src, n);
    800011a0:	00000097          	auipc	ra,0x0
    800011a4:	f94080e7          	jalr	-108(ra) # 80001134 <memmove>
}
    800011a8:	60a2                	ld	ra,8(sp)
    800011aa:	6402                	ld	s0,0(sp)
    800011ac:	0141                	addi	sp,sp,16
    800011ae:	8082                	ret

00000000800011b0 <strncmp>:

int
strncmp(const char *p, const char *q, uint n)
{
    800011b0:	1141                	addi	sp,sp,-16
    800011b2:	e422                	sd	s0,8(sp)
    800011b4:	0800                	addi	s0,sp,16
  while(n > 0 && *p && *p == *q)
    800011b6:	ce11                	beqz	a2,800011d2 <strncmp+0x22>
    800011b8:	00054783          	lbu	a5,0(a0)
    800011bc:	cf89                	beqz	a5,800011d6 <strncmp+0x26>
    800011be:	0005c703          	lbu	a4,0(a1)
    800011c2:	00f71a63          	bne	a4,a5,800011d6 <strncmp+0x26>
    n--, p++, q++;
    800011c6:	367d                	addiw	a2,a2,-1
    800011c8:	0505                	addi	a0,a0,1
    800011ca:	0585                	addi	a1,a1,1
  while(n > 0 && *p && *p == *q)
    800011cc:	f675                	bnez	a2,800011b8 <strncmp+0x8>
  if(n == 0)
    return 0;
    800011ce:	4501                	li	a0,0
    800011d0:	a809                	j	800011e2 <strncmp+0x32>
    800011d2:	4501                	li	a0,0
    800011d4:	a039                	j	800011e2 <strncmp+0x32>
  if(n == 0)
    800011d6:	ca09                	beqz	a2,800011e8 <strncmp+0x38>
  return (uchar)*p - (uchar)*q;
    800011d8:	00054503          	lbu	a0,0(a0)
    800011dc:	0005c783          	lbu	a5,0(a1)
    800011e0:	9d1d                	subw	a0,a0,a5
}
    800011e2:	6422                	ld	s0,8(sp)
    800011e4:	0141                	addi	sp,sp,16
    800011e6:	8082                	ret
    return 0;
    800011e8:	4501                	li	a0,0
    800011ea:	bfe5                	j	800011e2 <strncmp+0x32>

00000000800011ec <strncpy>:

char*
strncpy(char *s, const char *t, int n)
{
    800011ec:	1141                	addi	sp,sp,-16
    800011ee:	e422                	sd	s0,8(sp)
    800011f0:	0800                	addi	s0,sp,16
  char *os;

  os = s;
  while(n-- > 0 && (*s++ = *t++) != 0)
    800011f2:	872a                	mv	a4,a0
    800011f4:	8832                	mv	a6,a2
    800011f6:	367d                	addiw	a2,a2,-1
    800011f8:	01005963          	blez	a6,8000120a <strncpy+0x1e>
    800011fc:	0705                	addi	a4,a4,1
    800011fe:	0005c783          	lbu	a5,0(a1)
    80001202:	fef70fa3          	sb	a5,-1(a4)
    80001206:	0585                	addi	a1,a1,1
    80001208:	f7f5                	bnez	a5,800011f4 <strncpy+0x8>
    ;
  while(n-- > 0)
    8000120a:	00c05d63          	blez	a2,80001224 <strncpy+0x38>
    8000120e:	86ba                	mv	a3,a4
    *s++ = 0;
    80001210:	0685                	addi	a3,a3,1
    80001212:	fe068fa3          	sb	zero,-1(a3)
  while(n-- > 0)
    80001216:	fff6c793          	not	a5,a3
    8000121a:	9fb9                	addw	a5,a5,a4
    8000121c:	010787bb          	addw	a5,a5,a6
    80001220:	fef048e3          	bgtz	a5,80001210 <strncpy+0x24>
  return os;
}
    80001224:	6422                	ld	s0,8(sp)
    80001226:	0141                	addi	sp,sp,16
    80001228:	8082                	ret

000000008000122a <safestrcpy>:

// Like strncpy but guaranteed to NUL-terminate.
char*
safestrcpy(char *s, const char *t, int n)
{
    8000122a:	1141                	addi	sp,sp,-16
    8000122c:	e422                	sd	s0,8(sp)
    8000122e:	0800                	addi	s0,sp,16
  char *os;

  os = s;
  if(n <= 0)
    80001230:	02c05363          	blez	a2,80001256 <safestrcpy+0x2c>
    80001234:	fff6069b          	addiw	a3,a2,-1
    80001238:	1682                	slli	a3,a3,0x20
    8000123a:	9281                	srli	a3,a3,0x20
    8000123c:	96ae                	add	a3,a3,a1
    8000123e:	87aa                	mv	a5,a0
    return os;
  while(--n > 0 && (*s++ = *t++) != 0)
    80001240:	00d58963          	beq	a1,a3,80001252 <safestrcpy+0x28>
    80001244:	0585                	addi	a1,a1,1
    80001246:	0785                	addi	a5,a5,1
    80001248:	fff5c703          	lbu	a4,-1(a1)
    8000124c:	fee78fa3          	sb	a4,-1(a5)
    80001250:	fb65                	bnez	a4,80001240 <safestrcpy+0x16>
    ;
  *s = 0;
    80001252:	00078023          	sb	zero,0(a5)
  return os;
}
    80001256:	6422                	ld	s0,8(sp)
    80001258:	0141                	addi	sp,sp,16
    8000125a:	8082                	ret

000000008000125c <strlen>:

int
strlen(const char *s)
{
    8000125c:	1141                	addi	sp,sp,-16
    8000125e:	e422                	sd	s0,8(sp)
    80001260:	0800                	addi	s0,sp,16
  int n;

  for(n = 0; s[n]; n++)
    80001262:	00054783          	lbu	a5,0(a0)
    80001266:	cf91                	beqz	a5,80001282 <strlen+0x26>
    80001268:	0505                	addi	a0,a0,1
    8000126a:	87aa                	mv	a5,a0
    8000126c:	4685                	li	a3,1
    8000126e:	9e89                	subw	a3,a3,a0
    80001270:	00f6853b          	addw	a0,a3,a5
    80001274:	0785                	addi	a5,a5,1
    80001276:	fff7c703          	lbu	a4,-1(a5)
    8000127a:	fb7d                	bnez	a4,80001270 <strlen+0x14>
    ;
  return n;
}
    8000127c:	6422                	ld	s0,8(sp)
    8000127e:	0141                	addi	sp,sp,16
    80001280:	8082                	ret
  for(n = 0; s[n]; n++)
    80001282:	4501                	li	a0,0
    80001284:	bfe5                	j	8000127c <strlen+0x20>

0000000080001286 <strjoin>:


char* strjoin(char **s){
    80001286:	7139                	addi	sp,sp,-64
    80001288:	fc06                	sd	ra,56(sp)
    8000128a:	f822                	sd	s0,48(sp)
    8000128c:	f426                	sd	s1,40(sp)
    8000128e:	f04a                	sd	s2,32(sp)
    80001290:	ec4e                	sd	s3,24(sp)
    80001292:	e852                	sd	s4,16(sp)
    80001294:	e456                	sd	s5,8(sp)
    80001296:	e05a                	sd	s6,0(sp)
    80001298:	0080                	addi	s0,sp,64
    8000129a:	89aa                	mv	s3,a0
  int n = 0;
  char** os = s;
  while(*s){
    8000129c:	6108                	ld	a0,0(a0)
    8000129e:	cd3d                	beqz	a0,8000131c <strjoin+0x96>
    800012a0:	84ce                	mv	s1,s3
  int n = 0;
    800012a2:	4901                	li	s2,0
    n += strlen(*s) + 1;
    800012a4:	00000097          	auipc	ra,0x0
    800012a8:	fb8080e7          	jalr	-72(ra) # 8000125c <strlen>
    800012ac:	2505                	addiw	a0,a0,1
    800012ae:	0125093b          	addw	s2,a0,s2
    s++;
    800012b2:	04a1                	addi	s1,s1,8
  while(*s){
    800012b4:	6088                	ld	a0,0(s1)
    800012b6:	f57d                	bnez	a0,800012a4 <strjoin+0x1e>
  }
  char* d = bd_malloc(n);
    800012b8:	854a                	mv	a0,s2
    800012ba:	00006097          	auipc	ra,0x6
    800012be:	b86080e7          	jalr	-1146(ra) # 80006e40 <bd_malloc>
    800012c2:	8b2a                	mv	s6,a0
  s = os;
  char* od = d;
  while(*s){
    800012c4:	0009b903          	ld	s2,0(s3)
    800012c8:	04090c63          	beqz	s2,80001320 <strjoin+0x9a>
  char* d = bd_malloc(n);
    800012cc:	8a2a                	mv	s4,a0
    n = strlen(*s);
    safestrcpy(d, *s, n+1);
    d+=n;
    *d++ = ' ';
    800012ce:	02000a93          	li	s5,32
    n = strlen(*s);
    800012d2:	854a                	mv	a0,s2
    800012d4:	00000097          	auipc	ra,0x0
    800012d8:	f88080e7          	jalr	-120(ra) # 8000125c <strlen>
    800012dc:	84aa                	mv	s1,a0
    safestrcpy(d, *s, n+1);
    800012de:	0015061b          	addiw	a2,a0,1
    800012e2:	85ca                	mv	a1,s2
    800012e4:	8552                	mv	a0,s4
    800012e6:	00000097          	auipc	ra,0x0
    800012ea:	f44080e7          	jalr	-188(ra) # 8000122a <safestrcpy>
    d+=n;
    800012ee:	94d2                	add	s1,s1,s4
    *d++ = ' ';
    800012f0:	00148a13          	addi	s4,s1,1
    800012f4:	01548023          	sb	s5,0(s1)
    s++;
    800012f8:	09a1                	addi	s3,s3,8
  while(*s){
    800012fa:	0009b903          	ld	s2,0(s3)
    800012fe:	fc091ae3          	bnez	s2,800012d2 <strjoin+0x4c>
  }
  d[-1] = 0;
    80001302:	fe0a0fa3          	sb	zero,-1(s4)
  return od;
}
    80001306:	855a                	mv	a0,s6
    80001308:	70e2                	ld	ra,56(sp)
    8000130a:	7442                	ld	s0,48(sp)
    8000130c:	74a2                	ld	s1,40(sp)
    8000130e:	7902                	ld	s2,32(sp)
    80001310:	69e2                	ld	s3,24(sp)
    80001312:	6a42                	ld	s4,16(sp)
    80001314:	6aa2                	ld	s5,8(sp)
    80001316:	6b02                	ld	s6,0(sp)
    80001318:	6121                	addi	sp,sp,64
    8000131a:	8082                	ret
  int n = 0;
    8000131c:	4901                	li	s2,0
    8000131e:	bf69                	j	800012b8 <strjoin+0x32>
  char* d = bd_malloc(n);
    80001320:	8a2a                	mv	s4,a0
    80001322:	b7c5                	j	80001302 <strjoin+0x7c>

0000000080001324 <strdup>:


char* strdup(char *s){
    80001324:	7179                	addi	sp,sp,-48
    80001326:	f406                	sd	ra,40(sp)
    80001328:	f022                	sd	s0,32(sp)
    8000132a:	ec26                	sd	s1,24(sp)
    8000132c:	e84a                	sd	s2,16(sp)
    8000132e:	e44e                	sd	s3,8(sp)
    80001330:	1800                	addi	s0,sp,48
    80001332:	89aa                	mv	s3,a0
  int n = 0;
  n = strlen(s) + 1;
    80001334:	00000097          	auipc	ra,0x0
    80001338:	f28080e7          	jalr	-216(ra) # 8000125c <strlen>
    8000133c:	0015049b          	addiw	s1,a0,1
  char* d = bd_malloc(n);
    80001340:	8526                	mv	a0,s1
    80001342:	00006097          	auipc	ra,0x6
    80001346:	afe080e7          	jalr	-1282(ra) # 80006e40 <bd_malloc>
    8000134a:	892a                	mv	s2,a0
  safestrcpy(d, s, n);
    8000134c:	8626                	mv	a2,s1
    8000134e:	85ce                	mv	a1,s3
    80001350:	00000097          	auipc	ra,0x0
    80001354:	eda080e7          	jalr	-294(ra) # 8000122a <safestrcpy>
  return d;
}
    80001358:	854a                	mv	a0,s2
    8000135a:	70a2                	ld	ra,40(sp)
    8000135c:	7402                	ld	s0,32(sp)
    8000135e:	64e2                	ld	s1,24(sp)
    80001360:	6942                	ld	s2,16(sp)
    80001362:	69a2                	ld	s3,8(sp)
    80001364:	6145                	addi	sp,sp,48
    80001366:	8082                	ret

0000000080001368 <main>:
volatile static int started = 0;

// start() jumps here in supervisor mode on all CPUs.
void
main()
{
    80001368:	1141                	addi	sp,sp,-16
    8000136a:	e406                	sd	ra,8(sp)
    8000136c:	e022                	sd	s0,0(sp)
    8000136e:	0800                	addi	s0,sp,16
  if(cpuid() == 0){
    80001370:	00001097          	auipc	ra,0x1
    80001374:	c00080e7          	jalr	-1024(ra) # 80001f70 <cpuid>
    virtio_disk_init(minor(ROOTDEV)); // emulated hard disk
    userinit();      // first user process
    __sync_synchronize();
    started = 1;
  } else {
    while(started == 0)
    80001378:	0002d717          	auipc	a4,0x2d
    8000137c:	cfc70713          	addi	a4,a4,-772 # 8002e074 <started>
  if(cpuid() == 0){
    80001380:	c139                	beqz	a0,800013c6 <main+0x5e>
    while(started == 0)
    80001382:	431c                	lw	a5,0(a4)
    80001384:	2781                	sext.w	a5,a5
    80001386:	dff5                	beqz	a5,80001382 <main+0x1a>
      ;
    __sync_synchronize();
    80001388:	0ff0000f          	fence
    printf("hart %d starting\n", cpuid());
    8000138c:	00001097          	auipc	ra,0x1
    80001390:	be4080e7          	jalr	-1052(ra) # 80001f70 <cpuid>
    80001394:	85aa                	mv	a1,a0
    80001396:	00007517          	auipc	a0,0x7
    8000139a:	0b250513          	addi	a0,a0,178 # 80008448 <userret+0x3b8>
    8000139e:	fffff097          	auipc	ra,0xfffff
    800013a2:	5ce080e7          	jalr	1486(ra) # 8000096c <printf>
    kvminithart();    // turn on paging
    800013a6:	00000097          	auipc	ra,0x0
    800013aa:	1f2080e7          	jalr	498(ra) # 80001598 <kvminithart>
    trapinithart();   // install kernel trap vector
    800013ae:	00002097          	auipc	ra,0x2
    800013b2:	99c080e7          	jalr	-1636(ra) # 80002d4a <trapinithart>
    plicinithart();   // ask PLIC for device interrupts
    800013b6:	00005097          	auipc	ra,0x5
    800013ba:	0ca080e7          	jalr	202(ra) # 80006480 <plicinithart>
  }

  scheduler();        
    800013be:	00001097          	auipc	ra,0x1
    800013c2:	12a080e7          	jalr	298(ra) # 800024e8 <scheduler>
    consoleinit();
    800013c6:	fffff097          	auipc	ra,0xfffff
    800013ca:	244080e7          	jalr	580(ra) # 8000060a <consoleinit>
    watchdoginit();
    800013ce:	00006097          	auipc	ra,0x6
    800013d2:	4f2080e7          	jalr	1266(ra) # 800078c0 <watchdoginit>
    printfinit();
    800013d6:	fffff097          	auipc	ra,0xfffff
    800013da:	608080e7          	jalr	1544(ra) # 800009de <printfinit>
    printf("\n");
    800013de:	00007517          	auipc	a0,0x7
    800013e2:	26a50513          	addi	a0,a0,618 # 80008648 <userret+0x5b8>
    800013e6:	fffff097          	auipc	ra,0xfffff
    800013ea:	586080e7          	jalr	1414(ra) # 8000096c <printf>
    printf("xv6 kernel is booting\n");
    800013ee:	00007517          	auipc	a0,0x7
    800013f2:	04250513          	addi	a0,a0,66 # 80008430 <userret+0x3a0>
    800013f6:	fffff097          	auipc	ra,0xfffff
    800013fa:	576080e7          	jalr	1398(ra) # 8000096c <printf>
    printf("\n");
    800013fe:	00007517          	auipc	a0,0x7
    80001402:	24a50513          	addi	a0,a0,586 # 80008648 <userret+0x5b8>
    80001406:	fffff097          	auipc	ra,0xfffff
    8000140a:	566080e7          	jalr	1382(ra) # 8000096c <printf>
    kinit();         // physical page allocator
    8000140e:	fffff097          	auipc	ra,0xfffff
    80001412:	6b6080e7          	jalr	1718(ra) # 80000ac4 <kinit>
    kvminit();       // create kernel page table
    80001416:	00000097          	auipc	ra,0x0
    8000141a:	30c080e7          	jalr	780(ra) # 80001722 <kvminit>
    kvminithart();   // turn on paging
    8000141e:	00000097          	auipc	ra,0x0
    80001422:	17a080e7          	jalr	378(ra) # 80001598 <kvminithart>
    procinit();      // process table
    80001426:	00001097          	auipc	ra,0x1
    8000142a:	a4c080e7          	jalr	-1460(ra) # 80001e72 <procinit>
    trapinit();      // trap vectors
    8000142e:	00002097          	auipc	ra,0x2
    80001432:	8f4080e7          	jalr	-1804(ra) # 80002d22 <trapinit>
    trapinithart();  // install kernel trap vector
    80001436:	00002097          	auipc	ra,0x2
    8000143a:	914080e7          	jalr	-1772(ra) # 80002d4a <trapinithart>
    plicinit();      // set up interrupt controller
    8000143e:	00005097          	auipc	ra,0x5
    80001442:	02c080e7          	jalr	44(ra) # 8000646a <plicinit>
    plicinithart();  // ask PLIC for device interrupts
    80001446:	00005097          	auipc	ra,0x5
    8000144a:	03a080e7          	jalr	58(ra) # 80006480 <plicinithart>
    binit();         // buffer cache
    8000144e:	00002097          	auipc	ra,0x2
    80001452:	0b2080e7          	jalr	178(ra) # 80003500 <binit>
    iinit();         // inode cache
    80001456:	00002097          	auipc	ra,0x2
    8000145a:	746080e7          	jalr	1862(ra) # 80003b9c <iinit>
    fileinit();      // file table
    8000145e:	00003097          	auipc	ra,0x3
    80001462:	7ac080e7          	jalr	1964(ra) # 80004c0a <fileinit>
    virtio_disk_init(minor(ROOTDEV)); // emulated hard disk
    80001466:	4501                	li	a0,0
    80001468:	00005097          	auipc	ra,0x5
    8000146c:	13a080e7          	jalr	314(ra) # 800065a2 <virtio_disk_init>
    userinit();      // first user process
    80001470:	00001097          	auipc	ra,0x1
    80001474:	dba080e7          	jalr	-582(ra) # 8000222a <userinit>
    __sync_synchronize();
    80001478:	0ff0000f          	fence
    started = 1;
    8000147c:	4785                	li	a5,1
    8000147e:	0002d717          	auipc	a4,0x2d
    80001482:	bef72b23          	sw	a5,-1034(a4) # 8002e074 <started>
    80001486:	bf25                	j	800013be <main+0x56>

0000000080001488 <walk>:
//   21..39 -- 9 bits of level-1 index.
//   12..20 -- 9 bits of level-0 index.
//    0..12 -- 12 bits of byte offset within the page.
static pte_t *
walk(pagetable_t pagetable, uint64 va, int alloc)
{
    80001488:	7139                	addi	sp,sp,-64
    8000148a:	fc06                	sd	ra,56(sp)
    8000148c:	f822                	sd	s0,48(sp)
    8000148e:	f426                	sd	s1,40(sp)
    80001490:	f04a                	sd	s2,32(sp)
    80001492:	ec4e                	sd	s3,24(sp)
    80001494:	e852                	sd	s4,16(sp)
    80001496:	e456                	sd	s5,8(sp)
    80001498:	e05a                	sd	s6,0(sp)
    8000149a:	0080                	addi	s0,sp,64
    8000149c:	84aa                	mv	s1,a0
    8000149e:	89ae                	mv	s3,a1
    800014a0:	8ab2                	mv	s5,a2
  if(va >= MAXVA)
    800014a2:	57fd                	li	a5,-1
    800014a4:	83e9                	srli	a5,a5,0x1a
    800014a6:	4a79                	li	s4,30
    panic("walk");

  for(int level = 2; level > 0; level--) {
    800014a8:	4b31                	li	s6,12
  if(va >= MAXVA)
    800014aa:	04b7f263          	bgeu	a5,a1,800014ee <walk+0x66>
    panic("walk");
    800014ae:	00007517          	auipc	a0,0x7
    800014b2:	fb250513          	addi	a0,a0,-78 # 80008460 <userret+0x3d0>
    800014b6:	fffff097          	auipc	ra,0xfffff
    800014ba:	2a0080e7          	jalr	672(ra) # 80000756 <panic>
    pte_t *pte = &pagetable[PX(level, va)];
    if(*pte & PTE_V) {
      pagetable = (pagetable_t)PTE2PA(*pte);
    } else {
      if(!alloc || (pagetable = (pde_t*)kalloc()) == 0)
    800014be:	060a8663          	beqz	s5,8000152a <walk+0xa2>
    800014c2:	fffff097          	auipc	ra,0xfffff
    800014c6:	642080e7          	jalr	1602(ra) # 80000b04 <kalloc>
    800014ca:	84aa                	mv	s1,a0
    800014cc:	c529                	beqz	a0,80001516 <walk+0x8e>
        return 0;
      memset(pagetable, 0, PGSIZE);
    800014ce:	6605                	lui	a2,0x1
    800014d0:	4581                	li	a1,0
    800014d2:	00000097          	auipc	ra,0x0
    800014d6:	c02080e7          	jalr	-1022(ra) # 800010d4 <memset>
      *pte = PA2PTE(pagetable) | PTE_V;
    800014da:	00c4d793          	srli	a5,s1,0xc
    800014de:	07aa                	slli	a5,a5,0xa
    800014e0:	0017e793          	ori	a5,a5,1
    800014e4:	00f93023          	sd	a5,0(s2)
  for(int level = 2; level > 0; level--) {
    800014e8:	3a5d                	addiw	s4,s4,-9
    800014ea:	036a0063          	beq	s4,s6,8000150a <walk+0x82>
    pte_t *pte = &pagetable[PX(level, va)];
    800014ee:	0149d933          	srl	s2,s3,s4
    800014f2:	1ff97913          	andi	s2,s2,511
    800014f6:	090e                	slli	s2,s2,0x3
    800014f8:	9926                	add	s2,s2,s1
    if(*pte & PTE_V) {
    800014fa:	00093483          	ld	s1,0(s2)
    800014fe:	0014f793          	andi	a5,s1,1
    80001502:	dfd5                	beqz	a5,800014be <walk+0x36>
      pagetable = (pagetable_t)PTE2PA(*pte);
    80001504:	80a9                	srli	s1,s1,0xa
    80001506:	04b2                	slli	s1,s1,0xc
    80001508:	b7c5                	j	800014e8 <walk+0x60>
    }
  }
  return &pagetable[PX(0, va)];
    8000150a:	00c9d513          	srli	a0,s3,0xc
    8000150e:	1ff57513          	andi	a0,a0,511
    80001512:	050e                	slli	a0,a0,0x3
    80001514:	9526                	add	a0,a0,s1
}
    80001516:	70e2                	ld	ra,56(sp)
    80001518:	7442                	ld	s0,48(sp)
    8000151a:	74a2                	ld	s1,40(sp)
    8000151c:	7902                	ld	s2,32(sp)
    8000151e:	69e2                	ld	s3,24(sp)
    80001520:	6a42                	ld	s4,16(sp)
    80001522:	6aa2                	ld	s5,8(sp)
    80001524:	6b02                	ld	s6,0(sp)
    80001526:	6121                	addi	sp,sp,64
    80001528:	8082                	ret
        return 0;
    8000152a:	4501                	li	a0,0
    8000152c:	b7ed                	j	80001516 <walk+0x8e>

000000008000152e <freewalk>:

// Recursively free page-table pages.
// All leaf mappings must already have been removed.
static void
freewalk(pagetable_t pagetable)
{
    8000152e:	7179                	addi	sp,sp,-48
    80001530:	f406                	sd	ra,40(sp)
    80001532:	f022                	sd	s0,32(sp)
    80001534:	ec26                	sd	s1,24(sp)
    80001536:	e84a                	sd	s2,16(sp)
    80001538:	e44e                	sd	s3,8(sp)
    8000153a:	e052                	sd	s4,0(sp)
    8000153c:	1800                	addi	s0,sp,48
    8000153e:	8a2a                	mv	s4,a0
  // there are 2^9 = 512 PTEs in a page table.
  for(int i = 0; i < 512; i++){
    80001540:	84aa                	mv	s1,a0
    80001542:	6905                	lui	s2,0x1
    80001544:	992a                	add	s2,s2,a0
    pte_t pte = pagetable[i];
    if((pte & PTE_V) && (pte & (PTE_R|PTE_W|PTE_X)) == 0){
    80001546:	4985                	li	s3,1
    80001548:	a821                	j	80001560 <freewalk+0x32>
      // this PTE points to a lower-level page table.
      uint64 child = PTE2PA(pte);
    8000154a:	8129                	srli	a0,a0,0xa
      freewalk((pagetable_t)child);
    8000154c:	0532                	slli	a0,a0,0xc
    8000154e:	00000097          	auipc	ra,0x0
    80001552:	fe0080e7          	jalr	-32(ra) # 8000152e <freewalk>
      pagetable[i] = 0;
    80001556:	0004b023          	sd	zero,0(s1)
  for(int i = 0; i < 512; i++){
    8000155a:	04a1                	addi	s1,s1,8
    8000155c:	03248163          	beq	s1,s2,8000157e <freewalk+0x50>
    pte_t pte = pagetable[i];
    80001560:	6088                	ld	a0,0(s1)
    if((pte & PTE_V) && (pte & (PTE_R|PTE_W|PTE_X)) == 0){
    80001562:	00f57793          	andi	a5,a0,15
    80001566:	ff3782e3          	beq	a5,s3,8000154a <freewalk+0x1c>
    } else if(pte & PTE_V){
    8000156a:	8905                	andi	a0,a0,1
    8000156c:	d57d                	beqz	a0,8000155a <freewalk+0x2c>
      panic("freewalk: leaf");
    8000156e:	00007517          	auipc	a0,0x7
    80001572:	efa50513          	addi	a0,a0,-262 # 80008468 <userret+0x3d8>
    80001576:	fffff097          	auipc	ra,0xfffff
    8000157a:	1e0080e7          	jalr	480(ra) # 80000756 <panic>
    }
  }
  kfree((void*)pagetable);
    8000157e:	8552                	mv	a0,s4
    80001580:	fffff097          	auipc	ra,0xfffff
    80001584:	56c080e7          	jalr	1388(ra) # 80000aec <kfree>
}
    80001588:	70a2                	ld	ra,40(sp)
    8000158a:	7402                	ld	s0,32(sp)
    8000158c:	64e2                	ld	s1,24(sp)
    8000158e:	6942                	ld	s2,16(sp)
    80001590:	69a2                	ld	s3,8(sp)
    80001592:	6a02                	ld	s4,0(sp)
    80001594:	6145                	addi	sp,sp,48
    80001596:	8082                	ret

0000000080001598 <kvminithart>:
{
    80001598:	1141                	addi	sp,sp,-16
    8000159a:	e422                	sd	s0,8(sp)
    8000159c:	0800                	addi	s0,sp,16
  w_satp(MAKE_SATP(kernel_pagetable));
    8000159e:	0002d797          	auipc	a5,0x2d
    800015a2:	ada7b783          	ld	a5,-1318(a5) # 8002e078 <kernel_pagetable>
    800015a6:	83b1                	srli	a5,a5,0xc
    800015a8:	577d                	li	a4,-1
    800015aa:	177e                	slli	a4,a4,0x3f
    800015ac:	8fd9                	or	a5,a5,a4
  asm volatile("csrw satp, %0" : : "r" (x));
    800015ae:	18079073          	csrw	satp,a5
// flush the TLB.
static inline void
sfence_vma()
{
  // the zero, zero means flush all TLB entries.
  asm volatile("sfence.vma zero, zero");
    800015b2:	12000073          	sfence.vma
}
    800015b6:	6422                	ld	s0,8(sp)
    800015b8:	0141                	addi	sp,sp,16
    800015ba:	8082                	ret

00000000800015bc <walkaddr>:
  if(va >= MAXVA)
    800015bc:	57fd                	li	a5,-1
    800015be:	83e9                	srli	a5,a5,0x1a
    800015c0:	00b7f463          	bgeu	a5,a1,800015c8 <walkaddr+0xc>
    return 0;
    800015c4:	4501                	li	a0,0
}
    800015c6:	8082                	ret
{
    800015c8:	1141                	addi	sp,sp,-16
    800015ca:	e406                	sd	ra,8(sp)
    800015cc:	e022                	sd	s0,0(sp)
    800015ce:	0800                	addi	s0,sp,16
  pte = walk(pagetable, va, 0);
    800015d0:	4601                	li	a2,0
    800015d2:	00000097          	auipc	ra,0x0
    800015d6:	eb6080e7          	jalr	-330(ra) # 80001488 <walk>
  if(pte == 0)
    800015da:	c105                	beqz	a0,800015fa <walkaddr+0x3e>
  if((*pte & PTE_V) == 0)
    800015dc:	611c                	ld	a5,0(a0)
  if((*pte & PTE_U) == 0)
    800015de:	0117f693          	andi	a3,a5,17
    800015e2:	4745                	li	a4,17
    return 0;
    800015e4:	4501                	li	a0,0
  if((*pte & PTE_U) == 0)
    800015e6:	00e68663          	beq	a3,a4,800015f2 <walkaddr+0x36>
}
    800015ea:	60a2                	ld	ra,8(sp)
    800015ec:	6402                	ld	s0,0(sp)
    800015ee:	0141                	addi	sp,sp,16
    800015f0:	8082                	ret
  pa = PTE2PA(*pte);
    800015f2:	00a7d513          	srli	a0,a5,0xa
    800015f6:	0532                	slli	a0,a0,0xc
  return pa;
    800015f8:	bfcd                	j	800015ea <walkaddr+0x2e>
    return 0;
    800015fa:	4501                	li	a0,0
    800015fc:	b7fd                	j	800015ea <walkaddr+0x2e>

00000000800015fe <kvmpa>:
{
    800015fe:	1101                	addi	sp,sp,-32
    80001600:	ec06                	sd	ra,24(sp)
    80001602:	e822                	sd	s0,16(sp)
    80001604:	e426                	sd	s1,8(sp)
    80001606:	1000                	addi	s0,sp,32
    80001608:	85aa                	mv	a1,a0
  uint64 off = va % PGSIZE;
    8000160a:	1552                	slli	a0,a0,0x34
    8000160c:	03455493          	srli	s1,a0,0x34
  pte = walk(kernel_pagetable, va, 0);
    80001610:	4601                	li	a2,0
    80001612:	0002d517          	auipc	a0,0x2d
    80001616:	a6653503          	ld	a0,-1434(a0) # 8002e078 <kernel_pagetable>
    8000161a:	00000097          	auipc	ra,0x0
    8000161e:	e6e080e7          	jalr	-402(ra) # 80001488 <walk>
  if(pte == 0)
    80001622:	cd09                	beqz	a0,8000163c <kvmpa+0x3e>
  if((*pte & PTE_V) == 0)
    80001624:	6108                	ld	a0,0(a0)
    80001626:	00157793          	andi	a5,a0,1
    8000162a:	c38d                	beqz	a5,8000164c <kvmpa+0x4e>
  pa = PTE2PA(*pte);
    8000162c:	8129                	srli	a0,a0,0xa
    8000162e:	0532                	slli	a0,a0,0xc
}
    80001630:	9526                	add	a0,a0,s1
    80001632:	60e2                	ld	ra,24(sp)
    80001634:	6442                	ld	s0,16(sp)
    80001636:	64a2                	ld	s1,8(sp)
    80001638:	6105                	addi	sp,sp,32
    8000163a:	8082                	ret
    panic("kvmpa");
    8000163c:	00007517          	auipc	a0,0x7
    80001640:	e3c50513          	addi	a0,a0,-452 # 80008478 <userret+0x3e8>
    80001644:	fffff097          	auipc	ra,0xfffff
    80001648:	112080e7          	jalr	274(ra) # 80000756 <panic>
    panic("kvmpa");
    8000164c:	00007517          	auipc	a0,0x7
    80001650:	e2c50513          	addi	a0,a0,-468 # 80008478 <userret+0x3e8>
    80001654:	fffff097          	auipc	ra,0xfffff
    80001658:	102080e7          	jalr	258(ra) # 80000756 <panic>

000000008000165c <mappages>:
{
    8000165c:	715d                	addi	sp,sp,-80
    8000165e:	e486                	sd	ra,72(sp)
    80001660:	e0a2                	sd	s0,64(sp)
    80001662:	fc26                	sd	s1,56(sp)
    80001664:	f84a                	sd	s2,48(sp)
    80001666:	f44e                	sd	s3,40(sp)
    80001668:	f052                	sd	s4,32(sp)
    8000166a:	ec56                	sd	s5,24(sp)
    8000166c:	e85a                	sd	s6,16(sp)
    8000166e:	e45e                	sd	s7,8(sp)
    80001670:	0880                	addi	s0,sp,80
    80001672:	8aaa                	mv	s5,a0
    80001674:	8b3a                	mv	s6,a4
  a = PGROUNDDOWN(va);
    80001676:	777d                	lui	a4,0xfffff
    80001678:	00e5f7b3          	and	a5,a1,a4
  last = PGROUNDDOWN(va + size - 1);
    8000167c:	167d                	addi	a2,a2,-1
    8000167e:	00b609b3          	add	s3,a2,a1
    80001682:	00e9f9b3          	and	s3,s3,a4
  a = PGROUNDDOWN(va);
    80001686:	893e                	mv	s2,a5
    80001688:	40f68a33          	sub	s4,a3,a5
    a += PGSIZE;
    8000168c:	6b85                	lui	s7,0x1
    8000168e:	012a04b3          	add	s1,s4,s2
    if((pte = walk(pagetable, a, 1)) == 0)
    80001692:	4605                	li	a2,1
    80001694:	85ca                	mv	a1,s2
    80001696:	8556                	mv	a0,s5
    80001698:	00000097          	auipc	ra,0x0
    8000169c:	df0080e7          	jalr	-528(ra) # 80001488 <walk>
    800016a0:	c51d                	beqz	a0,800016ce <mappages+0x72>
    if(*pte & PTE_V)
    800016a2:	611c                	ld	a5,0(a0)
    800016a4:	8b85                	andi	a5,a5,1
    800016a6:	ef81                	bnez	a5,800016be <mappages+0x62>
    *pte = PA2PTE(pa) | perm | PTE_V;
    800016a8:	80b1                	srli	s1,s1,0xc
    800016aa:	04aa                	slli	s1,s1,0xa
    800016ac:	0164e4b3          	or	s1,s1,s6
    800016b0:	0014e493          	ori	s1,s1,1
    800016b4:	e104                	sd	s1,0(a0)
    if(a == last)
    800016b6:	03390863          	beq	s2,s3,800016e6 <mappages+0x8a>
    a += PGSIZE;
    800016ba:	995e                	add	s2,s2,s7
    if((pte = walk(pagetable, a, 1)) == 0)
    800016bc:	bfc9                	j	8000168e <mappages+0x32>
      panic("remap");
    800016be:	00007517          	auipc	a0,0x7
    800016c2:	dc250513          	addi	a0,a0,-574 # 80008480 <userret+0x3f0>
    800016c6:	fffff097          	auipc	ra,0xfffff
    800016ca:	090080e7          	jalr	144(ra) # 80000756 <panic>
      return -1;
    800016ce:	557d                	li	a0,-1
}
    800016d0:	60a6                	ld	ra,72(sp)
    800016d2:	6406                	ld	s0,64(sp)
    800016d4:	74e2                	ld	s1,56(sp)
    800016d6:	7942                	ld	s2,48(sp)
    800016d8:	79a2                	ld	s3,40(sp)
    800016da:	7a02                	ld	s4,32(sp)
    800016dc:	6ae2                	ld	s5,24(sp)
    800016de:	6b42                	ld	s6,16(sp)
    800016e0:	6ba2                	ld	s7,8(sp)
    800016e2:	6161                	addi	sp,sp,80
    800016e4:	8082                	ret
  return 0;
    800016e6:	4501                	li	a0,0
    800016e8:	b7e5                	j	800016d0 <mappages+0x74>

00000000800016ea <kvmmap>:
{
    800016ea:	1141                	addi	sp,sp,-16
    800016ec:	e406                	sd	ra,8(sp)
    800016ee:	e022                	sd	s0,0(sp)
    800016f0:	0800                	addi	s0,sp,16
    800016f2:	8736                	mv	a4,a3
  if(mappages(kernel_pagetable, va, sz, pa, perm) != 0)
    800016f4:	86ae                	mv	a3,a1
    800016f6:	85aa                	mv	a1,a0
    800016f8:	0002d517          	auipc	a0,0x2d
    800016fc:	98053503          	ld	a0,-1664(a0) # 8002e078 <kernel_pagetable>
    80001700:	00000097          	auipc	ra,0x0
    80001704:	f5c080e7          	jalr	-164(ra) # 8000165c <mappages>
    80001708:	e509                	bnez	a0,80001712 <kvmmap+0x28>
}
    8000170a:	60a2                	ld	ra,8(sp)
    8000170c:	6402                	ld	s0,0(sp)
    8000170e:	0141                	addi	sp,sp,16
    80001710:	8082                	ret
    panic("kvmmap");
    80001712:	00007517          	auipc	a0,0x7
    80001716:	d7650513          	addi	a0,a0,-650 # 80008488 <userret+0x3f8>
    8000171a:	fffff097          	auipc	ra,0xfffff
    8000171e:	03c080e7          	jalr	60(ra) # 80000756 <panic>

0000000080001722 <kvminit>:
{
    80001722:	1101                	addi	sp,sp,-32
    80001724:	ec06                	sd	ra,24(sp)
    80001726:	e822                	sd	s0,16(sp)
    80001728:	e426                	sd	s1,8(sp)
    8000172a:	1000                	addi	s0,sp,32
  kernel_pagetable = (pagetable_t) kalloc();
    8000172c:	fffff097          	auipc	ra,0xfffff
    80001730:	3d8080e7          	jalr	984(ra) # 80000b04 <kalloc>
    80001734:	0002d797          	auipc	a5,0x2d
    80001738:	94a7b223          	sd	a0,-1724(a5) # 8002e078 <kernel_pagetable>
  memset(kernel_pagetable, 0, PGSIZE);
    8000173c:	6605                	lui	a2,0x1
    8000173e:	4581                	li	a1,0
    80001740:	00000097          	auipc	ra,0x0
    80001744:	994080e7          	jalr	-1644(ra) # 800010d4 <memset>
  kvmmap(UART0, UART0, PGSIZE, PTE_R | PTE_W);
    80001748:	4699                	li	a3,6
    8000174a:	6605                	lui	a2,0x1
    8000174c:	100005b7          	lui	a1,0x10000
    80001750:	10000537          	lui	a0,0x10000
    80001754:	00000097          	auipc	ra,0x0
    80001758:	f96080e7          	jalr	-106(ra) # 800016ea <kvmmap>
  kvmmap(VIRTION(0), VIRTION(0), PGSIZE, PTE_R | PTE_W);
    8000175c:	4699                	li	a3,6
    8000175e:	6605                	lui	a2,0x1
    80001760:	100015b7          	lui	a1,0x10001
    80001764:	10001537          	lui	a0,0x10001
    80001768:	00000097          	auipc	ra,0x0
    8000176c:	f82080e7          	jalr	-126(ra) # 800016ea <kvmmap>
  kvmmap(VIRTION(1), VIRTION(1), PGSIZE, PTE_R | PTE_W);
    80001770:	4699                	li	a3,6
    80001772:	6605                	lui	a2,0x1
    80001774:	100025b7          	lui	a1,0x10002
    80001778:	10002537          	lui	a0,0x10002
    8000177c:	00000097          	auipc	ra,0x0
    80001780:	f6e080e7          	jalr	-146(ra) # 800016ea <kvmmap>
  kvmmap(CLINT, CLINT, 0x10000, PTE_R | PTE_W);
    80001784:	4699                	li	a3,6
    80001786:	6641                	lui	a2,0x10
    80001788:	020005b7          	lui	a1,0x2000
    8000178c:	02000537          	lui	a0,0x2000
    80001790:	00000097          	auipc	ra,0x0
    80001794:	f5a080e7          	jalr	-166(ra) # 800016ea <kvmmap>
  kvmmap(PLIC, PLIC, 0x400000, PTE_R | PTE_W);
    80001798:	4699                	li	a3,6
    8000179a:	00400637          	lui	a2,0x400
    8000179e:	0c0005b7          	lui	a1,0xc000
    800017a2:	0c000537          	lui	a0,0xc000
    800017a6:	00000097          	auipc	ra,0x0
    800017aa:	f44080e7          	jalr	-188(ra) # 800016ea <kvmmap>
  kvmmap(KERNBASE, KERNBASE, (uint64)etext-KERNBASE, PTE_R | PTE_X);
    800017ae:	00009497          	auipc	s1,0x9
    800017b2:	85248493          	addi	s1,s1,-1966 # 8000a000 <initcode>
    800017b6:	46a9                	li	a3,10
    800017b8:	80009617          	auipc	a2,0x80009
    800017bc:	84860613          	addi	a2,a2,-1976 # a000 <_entry-0x7fff6000>
    800017c0:	4585                	li	a1,1
    800017c2:	05fe                	slli	a1,a1,0x1f
    800017c4:	852e                	mv	a0,a1
    800017c6:	00000097          	auipc	ra,0x0
    800017ca:	f24080e7          	jalr	-220(ra) # 800016ea <kvmmap>
  kvmmap((uint64)etext, (uint64)etext, PHYSTOP-(uint64)etext, PTE_R | PTE_W);
    800017ce:	4699                	li	a3,6
    800017d0:	4645                	li	a2,17
    800017d2:	066e                	slli	a2,a2,0x1b
    800017d4:	8e05                	sub	a2,a2,s1
    800017d6:	85a6                	mv	a1,s1
    800017d8:	8526                	mv	a0,s1
    800017da:	00000097          	auipc	ra,0x0
    800017de:	f10080e7          	jalr	-240(ra) # 800016ea <kvmmap>
  kvmmap(TRAMPOLINE, (uint64)trampoline, PGSIZE, PTE_R | PTE_X);
    800017e2:	46a9                	li	a3,10
    800017e4:	6605                	lui	a2,0x1
    800017e6:	00007597          	auipc	a1,0x7
    800017ea:	81a58593          	addi	a1,a1,-2022 # 80008000 <trampoline>
    800017ee:	04000537          	lui	a0,0x4000
    800017f2:	157d                	addi	a0,a0,-1
    800017f4:	0532                	slli	a0,a0,0xc
    800017f6:	00000097          	auipc	ra,0x0
    800017fa:	ef4080e7          	jalr	-268(ra) # 800016ea <kvmmap>
}
    800017fe:	60e2                	ld	ra,24(sp)
    80001800:	6442                	ld	s0,16(sp)
    80001802:	64a2                	ld	s1,8(sp)
    80001804:	6105                	addi	sp,sp,32
    80001806:	8082                	ret

0000000080001808 <uvmunmap>:
{
    80001808:	715d                	addi	sp,sp,-80
    8000180a:	e486                	sd	ra,72(sp)
    8000180c:	e0a2                	sd	s0,64(sp)
    8000180e:	fc26                	sd	s1,56(sp)
    80001810:	f84a                	sd	s2,48(sp)
    80001812:	f44e                	sd	s3,40(sp)
    80001814:	f052                	sd	s4,32(sp)
    80001816:	ec56                	sd	s5,24(sp)
    80001818:	e85a                	sd	s6,16(sp)
    8000181a:	e45e                	sd	s7,8(sp)
    8000181c:	0880                	addi	s0,sp,80
    8000181e:	8a2a                	mv	s4,a0
    80001820:	8ab6                	mv	s5,a3
  a = PGROUNDDOWN(va);
    80001822:	77fd                	lui	a5,0xfffff
    80001824:	00f5f933          	and	s2,a1,a5
  last = PGROUNDDOWN(va + size - 1);
    80001828:	167d                	addi	a2,a2,-1
    8000182a:	00b609b3          	add	s3,a2,a1
    8000182e:	00f9f9b3          	and	s3,s3,a5
    if(PTE_FLAGS(*pte) == PTE_V)
    80001832:	4b05                	li	s6,1
    a += PGSIZE;
    80001834:	6b85                	lui	s7,0x1
    80001836:	a8b1                	j	80001892 <uvmunmap+0x8a>
      panic("uvmunmap: walk");
    80001838:	00007517          	auipc	a0,0x7
    8000183c:	c5850513          	addi	a0,a0,-936 # 80008490 <userret+0x400>
    80001840:	fffff097          	auipc	ra,0xfffff
    80001844:	f16080e7          	jalr	-234(ra) # 80000756 <panic>
      printf("va=%p pte=%p\n", a, *pte);
    80001848:	862a                	mv	a2,a0
    8000184a:	85ca                	mv	a1,s2
    8000184c:	00007517          	auipc	a0,0x7
    80001850:	c5450513          	addi	a0,a0,-940 # 800084a0 <userret+0x410>
    80001854:	fffff097          	auipc	ra,0xfffff
    80001858:	118080e7          	jalr	280(ra) # 8000096c <printf>
      panic("uvmunmap: not mapped");
    8000185c:	00007517          	auipc	a0,0x7
    80001860:	c5450513          	addi	a0,a0,-940 # 800084b0 <userret+0x420>
    80001864:	fffff097          	auipc	ra,0xfffff
    80001868:	ef2080e7          	jalr	-270(ra) # 80000756 <panic>
      panic("uvmunmap: not a leaf");
    8000186c:	00007517          	auipc	a0,0x7
    80001870:	c5c50513          	addi	a0,a0,-932 # 800084c8 <userret+0x438>
    80001874:	fffff097          	auipc	ra,0xfffff
    80001878:	ee2080e7          	jalr	-286(ra) # 80000756 <panic>
      pa = PTE2PA(*pte);
    8000187c:	8129                	srli	a0,a0,0xa
      kfree((void*)pa);
    8000187e:	0532                	slli	a0,a0,0xc
    80001880:	fffff097          	auipc	ra,0xfffff
    80001884:	26c080e7          	jalr	620(ra) # 80000aec <kfree>
    *pte = 0;
    80001888:	0004b023          	sd	zero,0(s1)
    if(a == last)
    8000188c:	03390763          	beq	s2,s3,800018ba <uvmunmap+0xb2>
    a += PGSIZE;
    80001890:	995e                	add	s2,s2,s7
    if((pte = walk(pagetable, a, 0)) == 0)
    80001892:	4601                	li	a2,0
    80001894:	85ca                	mv	a1,s2
    80001896:	8552                	mv	a0,s4
    80001898:	00000097          	auipc	ra,0x0
    8000189c:	bf0080e7          	jalr	-1040(ra) # 80001488 <walk>
    800018a0:	84aa                	mv	s1,a0
    800018a2:	d959                	beqz	a0,80001838 <uvmunmap+0x30>
    if((*pte & PTE_V) == 0){
    800018a4:	6108                	ld	a0,0(a0)
    800018a6:	00157793          	andi	a5,a0,1
    800018aa:	dfd9                	beqz	a5,80001848 <uvmunmap+0x40>
    if(PTE_FLAGS(*pte) == PTE_V)
    800018ac:	3ff57793          	andi	a5,a0,1023
    800018b0:	fb678ee3          	beq	a5,s6,8000186c <uvmunmap+0x64>
    if(do_free){
    800018b4:	fc0a8ae3          	beqz	s5,80001888 <uvmunmap+0x80>
    800018b8:	b7d1                	j	8000187c <uvmunmap+0x74>
}
    800018ba:	60a6                	ld	ra,72(sp)
    800018bc:	6406                	ld	s0,64(sp)
    800018be:	74e2                	ld	s1,56(sp)
    800018c0:	7942                	ld	s2,48(sp)
    800018c2:	79a2                	ld	s3,40(sp)
    800018c4:	7a02                	ld	s4,32(sp)
    800018c6:	6ae2                	ld	s5,24(sp)
    800018c8:	6b42                	ld	s6,16(sp)
    800018ca:	6ba2                	ld	s7,8(sp)
    800018cc:	6161                	addi	sp,sp,80
    800018ce:	8082                	ret

00000000800018d0 <uvmcreate>:
{
    800018d0:	1101                	addi	sp,sp,-32
    800018d2:	ec06                	sd	ra,24(sp)
    800018d4:	e822                	sd	s0,16(sp)
    800018d6:	e426                	sd	s1,8(sp)
    800018d8:	1000                	addi	s0,sp,32
  pagetable = (pagetable_t) kalloc();
    800018da:	fffff097          	auipc	ra,0xfffff
    800018de:	22a080e7          	jalr	554(ra) # 80000b04 <kalloc>
  if(pagetable == 0)
    800018e2:	cd11                	beqz	a0,800018fe <uvmcreate+0x2e>
    800018e4:	84aa                	mv	s1,a0
  memset(pagetable, 0, PGSIZE);
    800018e6:	6605                	lui	a2,0x1
    800018e8:	4581                	li	a1,0
    800018ea:	fffff097          	auipc	ra,0xfffff
    800018ee:	7ea080e7          	jalr	2026(ra) # 800010d4 <memset>
}
    800018f2:	8526                	mv	a0,s1
    800018f4:	60e2                	ld	ra,24(sp)
    800018f6:	6442                	ld	s0,16(sp)
    800018f8:	64a2                	ld	s1,8(sp)
    800018fa:	6105                	addi	sp,sp,32
    800018fc:	8082                	ret
    panic("uvmcreate: out of memory");
    800018fe:	00007517          	auipc	a0,0x7
    80001902:	be250513          	addi	a0,a0,-1054 # 800084e0 <userret+0x450>
    80001906:	fffff097          	auipc	ra,0xfffff
    8000190a:	e50080e7          	jalr	-432(ra) # 80000756 <panic>

000000008000190e <uvminit>:
{
    8000190e:	7179                	addi	sp,sp,-48
    80001910:	f406                	sd	ra,40(sp)
    80001912:	f022                	sd	s0,32(sp)
    80001914:	ec26                	sd	s1,24(sp)
    80001916:	e84a                	sd	s2,16(sp)
    80001918:	e44e                	sd	s3,8(sp)
    8000191a:	e052                	sd	s4,0(sp)
    8000191c:	1800                	addi	s0,sp,48
  if(sz >= PGSIZE)
    8000191e:	6785                	lui	a5,0x1
    80001920:	04f67863          	bgeu	a2,a5,80001970 <uvminit+0x62>
    80001924:	8a2a                	mv	s4,a0
    80001926:	89ae                	mv	s3,a1
    80001928:	84b2                	mv	s1,a2
  mem = kalloc();
    8000192a:	fffff097          	auipc	ra,0xfffff
    8000192e:	1da080e7          	jalr	474(ra) # 80000b04 <kalloc>
    80001932:	892a                	mv	s2,a0
  memset(mem, 0, PGSIZE);
    80001934:	6605                	lui	a2,0x1
    80001936:	4581                	li	a1,0
    80001938:	fffff097          	auipc	ra,0xfffff
    8000193c:	79c080e7          	jalr	1948(ra) # 800010d4 <memset>
  mappages(pagetable, 0, PGSIZE, (uint64)mem, PTE_W|PTE_R|PTE_X|PTE_U);
    80001940:	4779                	li	a4,30
    80001942:	86ca                	mv	a3,s2
    80001944:	6605                	lui	a2,0x1
    80001946:	4581                	li	a1,0
    80001948:	8552                	mv	a0,s4
    8000194a:	00000097          	auipc	ra,0x0
    8000194e:	d12080e7          	jalr	-750(ra) # 8000165c <mappages>
  memmove(mem, src, sz);
    80001952:	8626                	mv	a2,s1
    80001954:	85ce                	mv	a1,s3
    80001956:	854a                	mv	a0,s2
    80001958:	fffff097          	auipc	ra,0xfffff
    8000195c:	7dc080e7          	jalr	2012(ra) # 80001134 <memmove>
}
    80001960:	70a2                	ld	ra,40(sp)
    80001962:	7402                	ld	s0,32(sp)
    80001964:	64e2                	ld	s1,24(sp)
    80001966:	6942                	ld	s2,16(sp)
    80001968:	69a2                	ld	s3,8(sp)
    8000196a:	6a02                	ld	s4,0(sp)
    8000196c:	6145                	addi	sp,sp,48
    8000196e:	8082                	ret
    panic("inituvm: more than a page");
    80001970:	00007517          	auipc	a0,0x7
    80001974:	b9050513          	addi	a0,a0,-1136 # 80008500 <userret+0x470>
    80001978:	fffff097          	auipc	ra,0xfffff
    8000197c:	dde080e7          	jalr	-546(ra) # 80000756 <panic>

0000000080001980 <uvmdealloc>:
{
    80001980:	1101                	addi	sp,sp,-32
    80001982:	ec06                	sd	ra,24(sp)
    80001984:	e822                	sd	s0,16(sp)
    80001986:	e426                	sd	s1,8(sp)
    80001988:	1000                	addi	s0,sp,32
    return oldsz;
    8000198a:	84ae                	mv	s1,a1
  if(newsz >= oldsz)
    8000198c:	00b67d63          	bgeu	a2,a1,800019a6 <uvmdealloc+0x26>
    80001990:	84b2                	mv	s1,a2
  uint64 newup = PGROUNDUP(newsz);
    80001992:	6785                	lui	a5,0x1
    80001994:	17fd                	addi	a5,a5,-1
    80001996:	00f60733          	add	a4,a2,a5
    8000199a:	76fd                	lui	a3,0xfffff
    8000199c:	8f75                	and	a4,a4,a3
  if(newup < PGROUNDUP(oldsz))
    8000199e:	97ae                	add	a5,a5,a1
    800019a0:	8ff5                	and	a5,a5,a3
    800019a2:	00f76863          	bltu	a4,a5,800019b2 <uvmdealloc+0x32>
}
    800019a6:	8526                	mv	a0,s1
    800019a8:	60e2                	ld	ra,24(sp)
    800019aa:	6442                	ld	s0,16(sp)
    800019ac:	64a2                	ld	s1,8(sp)
    800019ae:	6105                	addi	sp,sp,32
    800019b0:	8082                	ret
    uvmunmap(pagetable, newup, oldsz - newup, 1);
    800019b2:	4685                	li	a3,1
    800019b4:	40e58633          	sub	a2,a1,a4
    800019b8:	85ba                	mv	a1,a4
    800019ba:	00000097          	auipc	ra,0x0
    800019be:	e4e080e7          	jalr	-434(ra) # 80001808 <uvmunmap>
    800019c2:	b7d5                	j	800019a6 <uvmdealloc+0x26>

00000000800019c4 <uvmalloc>:
  if(newsz < oldsz)
    800019c4:	0ab66163          	bltu	a2,a1,80001a66 <uvmalloc+0xa2>
{
    800019c8:	7139                	addi	sp,sp,-64
    800019ca:	fc06                	sd	ra,56(sp)
    800019cc:	f822                	sd	s0,48(sp)
    800019ce:	f426                	sd	s1,40(sp)
    800019d0:	f04a                	sd	s2,32(sp)
    800019d2:	ec4e                	sd	s3,24(sp)
    800019d4:	e852                	sd	s4,16(sp)
    800019d6:	e456                	sd	s5,8(sp)
    800019d8:	0080                	addi	s0,sp,64
    800019da:	8aaa                	mv	s5,a0
    800019dc:	8a32                	mv	s4,a2
  oldsz = PGROUNDUP(oldsz);
    800019de:	6985                	lui	s3,0x1
    800019e0:	19fd                	addi	s3,s3,-1
    800019e2:	95ce                	add	a1,a1,s3
    800019e4:	79fd                	lui	s3,0xfffff
    800019e6:	0135f9b3          	and	s3,a1,s3
  for(; a < newsz; a += PGSIZE){
    800019ea:	08c9f063          	bgeu	s3,a2,80001a6a <uvmalloc+0xa6>
  a = oldsz;
    800019ee:	894e                	mv	s2,s3
    mem = kalloc();
    800019f0:	fffff097          	auipc	ra,0xfffff
    800019f4:	114080e7          	jalr	276(ra) # 80000b04 <kalloc>
    800019f8:	84aa                	mv	s1,a0
    if(mem == 0){
    800019fa:	c51d                	beqz	a0,80001a28 <uvmalloc+0x64>
    memset(mem, 0, PGSIZE);
    800019fc:	6605                	lui	a2,0x1
    800019fe:	4581                	li	a1,0
    80001a00:	fffff097          	auipc	ra,0xfffff
    80001a04:	6d4080e7          	jalr	1748(ra) # 800010d4 <memset>
    if(mappages(pagetable, a, PGSIZE, (uint64)mem, PTE_W|PTE_X|PTE_R|PTE_U) != 0){
    80001a08:	4779                	li	a4,30
    80001a0a:	86a6                	mv	a3,s1
    80001a0c:	6605                	lui	a2,0x1
    80001a0e:	85ca                	mv	a1,s2
    80001a10:	8556                	mv	a0,s5
    80001a12:	00000097          	auipc	ra,0x0
    80001a16:	c4a080e7          	jalr	-950(ra) # 8000165c <mappages>
    80001a1a:	e905                	bnez	a0,80001a4a <uvmalloc+0x86>
  for(; a < newsz; a += PGSIZE){
    80001a1c:	6785                	lui	a5,0x1
    80001a1e:	993e                	add	s2,s2,a5
    80001a20:	fd4968e3          	bltu	s2,s4,800019f0 <uvmalloc+0x2c>
  return newsz;
    80001a24:	8552                	mv	a0,s4
    80001a26:	a809                	j	80001a38 <uvmalloc+0x74>
      uvmdealloc(pagetable, a, oldsz);
    80001a28:	864e                	mv	a2,s3
    80001a2a:	85ca                	mv	a1,s2
    80001a2c:	8556                	mv	a0,s5
    80001a2e:	00000097          	auipc	ra,0x0
    80001a32:	f52080e7          	jalr	-174(ra) # 80001980 <uvmdealloc>
      return 0;
    80001a36:	4501                	li	a0,0
}
    80001a38:	70e2                	ld	ra,56(sp)
    80001a3a:	7442                	ld	s0,48(sp)
    80001a3c:	74a2                	ld	s1,40(sp)
    80001a3e:	7902                	ld	s2,32(sp)
    80001a40:	69e2                	ld	s3,24(sp)
    80001a42:	6a42                	ld	s4,16(sp)
    80001a44:	6aa2                	ld	s5,8(sp)
    80001a46:	6121                	addi	sp,sp,64
    80001a48:	8082                	ret
      kfree(mem);
    80001a4a:	8526                	mv	a0,s1
    80001a4c:	fffff097          	auipc	ra,0xfffff
    80001a50:	0a0080e7          	jalr	160(ra) # 80000aec <kfree>
      uvmdealloc(pagetable, a, oldsz);
    80001a54:	864e                	mv	a2,s3
    80001a56:	85ca                	mv	a1,s2
    80001a58:	8556                	mv	a0,s5
    80001a5a:	00000097          	auipc	ra,0x0
    80001a5e:	f26080e7          	jalr	-218(ra) # 80001980 <uvmdealloc>
      return 0;
    80001a62:	4501                	li	a0,0
    80001a64:	bfd1                	j	80001a38 <uvmalloc+0x74>
    return oldsz;
    80001a66:	852e                	mv	a0,a1
}
    80001a68:	8082                	ret
  return newsz;
    80001a6a:	8532                	mv	a0,a2
    80001a6c:	b7f1                	j	80001a38 <uvmalloc+0x74>

0000000080001a6e <uvmfree>:

// Free user memory pages,
// then free page-table pages.
void
uvmfree(pagetable_t pagetable, uint64 sz)
{
    80001a6e:	1101                	addi	sp,sp,-32
    80001a70:	ec06                	sd	ra,24(sp)
    80001a72:	e822                	sd	s0,16(sp)
    80001a74:	e426                	sd	s1,8(sp)
    80001a76:	1000                	addi	s0,sp,32
    80001a78:	84aa                	mv	s1,a0
    80001a7a:	862e                	mv	a2,a1
  uvmunmap(pagetable, 0, sz, 1);
    80001a7c:	4685                	li	a3,1
    80001a7e:	4581                	li	a1,0
    80001a80:	00000097          	auipc	ra,0x0
    80001a84:	d88080e7          	jalr	-632(ra) # 80001808 <uvmunmap>
  freewalk(pagetable);
    80001a88:	8526                	mv	a0,s1
    80001a8a:	00000097          	auipc	ra,0x0
    80001a8e:	aa4080e7          	jalr	-1372(ra) # 8000152e <freewalk>
}
    80001a92:	60e2                	ld	ra,24(sp)
    80001a94:	6442                	ld	s0,16(sp)
    80001a96:	64a2                	ld	s1,8(sp)
    80001a98:	6105                	addi	sp,sp,32
    80001a9a:	8082                	ret

0000000080001a9c <uvmcopy>:
  pte_t *pte;
  uint64 pa, i;
  uint flags;
  char *mem;

  for(i = 0; i < sz; i += PGSIZE){
    80001a9c:	c671                	beqz	a2,80001b68 <uvmcopy+0xcc>
{
    80001a9e:	715d                	addi	sp,sp,-80
    80001aa0:	e486                	sd	ra,72(sp)
    80001aa2:	e0a2                	sd	s0,64(sp)
    80001aa4:	fc26                	sd	s1,56(sp)
    80001aa6:	f84a                	sd	s2,48(sp)
    80001aa8:	f44e                	sd	s3,40(sp)
    80001aaa:	f052                	sd	s4,32(sp)
    80001aac:	ec56                	sd	s5,24(sp)
    80001aae:	e85a                	sd	s6,16(sp)
    80001ab0:	e45e                	sd	s7,8(sp)
    80001ab2:	0880                	addi	s0,sp,80
    80001ab4:	8b2a                	mv	s6,a0
    80001ab6:	8aae                	mv	s5,a1
    80001ab8:	8a32                	mv	s4,a2
  for(i = 0; i < sz; i += PGSIZE){
    80001aba:	4981                	li	s3,0
    if((pte = walk(old, i, 0)) == 0)
    80001abc:	4601                	li	a2,0
    80001abe:	85ce                	mv	a1,s3
    80001ac0:	855a                	mv	a0,s6
    80001ac2:	00000097          	auipc	ra,0x0
    80001ac6:	9c6080e7          	jalr	-1594(ra) # 80001488 <walk>
    80001aca:	c531                	beqz	a0,80001b16 <uvmcopy+0x7a>
      panic("uvmcopy: pte should exist");
    if((*pte & PTE_V) == 0)
    80001acc:	6118                	ld	a4,0(a0)
    80001ace:	00177793          	andi	a5,a4,1
    80001ad2:	cbb1                	beqz	a5,80001b26 <uvmcopy+0x8a>
      panic("uvmcopy: page not present");
    pa = PTE2PA(*pte);
    80001ad4:	00a75593          	srli	a1,a4,0xa
    80001ad8:	00c59b93          	slli	s7,a1,0xc
    flags = PTE_FLAGS(*pte);
    80001adc:	3ff77493          	andi	s1,a4,1023
    if((mem = kalloc()) == 0)
    80001ae0:	fffff097          	auipc	ra,0xfffff
    80001ae4:	024080e7          	jalr	36(ra) # 80000b04 <kalloc>
    80001ae8:	892a                	mv	s2,a0
    80001aea:	c939                	beqz	a0,80001b40 <uvmcopy+0xa4>
      goto err;
    memmove(mem, (char*)pa, PGSIZE);
    80001aec:	6605                	lui	a2,0x1
    80001aee:	85de                	mv	a1,s7
    80001af0:	fffff097          	auipc	ra,0xfffff
    80001af4:	644080e7          	jalr	1604(ra) # 80001134 <memmove>
    if(mappages(new, i, PGSIZE, (uint64)mem, flags) != 0){
    80001af8:	8726                	mv	a4,s1
    80001afa:	86ca                	mv	a3,s2
    80001afc:	6605                	lui	a2,0x1
    80001afe:	85ce                	mv	a1,s3
    80001b00:	8556                	mv	a0,s5
    80001b02:	00000097          	auipc	ra,0x0
    80001b06:	b5a080e7          	jalr	-1190(ra) # 8000165c <mappages>
    80001b0a:	e515                	bnez	a0,80001b36 <uvmcopy+0x9a>
  for(i = 0; i < sz; i += PGSIZE){
    80001b0c:	6785                	lui	a5,0x1
    80001b0e:	99be                	add	s3,s3,a5
    80001b10:	fb49e6e3          	bltu	s3,s4,80001abc <uvmcopy+0x20>
    80001b14:	a83d                	j	80001b52 <uvmcopy+0xb6>
      panic("uvmcopy: pte should exist");
    80001b16:	00007517          	auipc	a0,0x7
    80001b1a:	a0a50513          	addi	a0,a0,-1526 # 80008520 <userret+0x490>
    80001b1e:	fffff097          	auipc	ra,0xfffff
    80001b22:	c38080e7          	jalr	-968(ra) # 80000756 <panic>
      panic("uvmcopy: page not present");
    80001b26:	00007517          	auipc	a0,0x7
    80001b2a:	a1a50513          	addi	a0,a0,-1510 # 80008540 <userret+0x4b0>
    80001b2e:	fffff097          	auipc	ra,0xfffff
    80001b32:	c28080e7          	jalr	-984(ra) # 80000756 <panic>
      kfree(mem);
    80001b36:	854a                	mv	a0,s2
    80001b38:	fffff097          	auipc	ra,0xfffff
    80001b3c:	fb4080e7          	jalr	-76(ra) # 80000aec <kfree>
    }
  }
  return 0;

 err:
  uvmunmap(new, 0, i, 1);
    80001b40:	4685                	li	a3,1
    80001b42:	864e                	mv	a2,s3
    80001b44:	4581                	li	a1,0
    80001b46:	8556                	mv	a0,s5
    80001b48:	00000097          	auipc	ra,0x0
    80001b4c:	cc0080e7          	jalr	-832(ra) # 80001808 <uvmunmap>
  return -1;
    80001b50:	557d                	li	a0,-1
}
    80001b52:	60a6                	ld	ra,72(sp)
    80001b54:	6406                	ld	s0,64(sp)
    80001b56:	74e2                	ld	s1,56(sp)
    80001b58:	7942                	ld	s2,48(sp)
    80001b5a:	79a2                	ld	s3,40(sp)
    80001b5c:	7a02                	ld	s4,32(sp)
    80001b5e:	6ae2                	ld	s5,24(sp)
    80001b60:	6b42                	ld	s6,16(sp)
    80001b62:	6ba2                	ld	s7,8(sp)
    80001b64:	6161                	addi	sp,sp,80
    80001b66:	8082                	ret
  return 0;
    80001b68:	4501                	li	a0,0
}
    80001b6a:	8082                	ret

0000000080001b6c <uvmclear>:

// mark a PTE invalid for user access.
// used by exec for the user stack guard page.
void
uvmclear(pagetable_t pagetable, uint64 va)
{
    80001b6c:	1141                	addi	sp,sp,-16
    80001b6e:	e406                	sd	ra,8(sp)
    80001b70:	e022                	sd	s0,0(sp)
    80001b72:	0800                	addi	s0,sp,16
  pte_t *pte;
  
  pte = walk(pagetable, va, 0);
    80001b74:	4601                	li	a2,0
    80001b76:	00000097          	auipc	ra,0x0
    80001b7a:	912080e7          	jalr	-1774(ra) # 80001488 <walk>
  if(pte == 0)
    80001b7e:	c901                	beqz	a0,80001b8e <uvmclear+0x22>
    panic("uvmclear");
  *pte &= ~PTE_U;
    80001b80:	611c                	ld	a5,0(a0)
    80001b82:	9bbd                	andi	a5,a5,-17
    80001b84:	e11c                	sd	a5,0(a0)
}
    80001b86:	60a2                	ld	ra,8(sp)
    80001b88:	6402                	ld	s0,0(sp)
    80001b8a:	0141                	addi	sp,sp,16
    80001b8c:	8082                	ret
    panic("uvmclear");
    80001b8e:	00007517          	auipc	a0,0x7
    80001b92:	9d250513          	addi	a0,a0,-1582 # 80008560 <userret+0x4d0>
    80001b96:	fffff097          	auipc	ra,0xfffff
    80001b9a:	bc0080e7          	jalr	-1088(ra) # 80000756 <panic>

0000000080001b9e <copyout>:
int
copyout(pagetable_t pagetable, uint64 dstva, char *src, uint64 len)
{
  uint64 n, va0, pa0;

  while(len > 0){
    80001b9e:	c6bd                	beqz	a3,80001c0c <copyout+0x6e>
{
    80001ba0:	715d                	addi	sp,sp,-80
    80001ba2:	e486                	sd	ra,72(sp)
    80001ba4:	e0a2                	sd	s0,64(sp)
    80001ba6:	fc26                	sd	s1,56(sp)
    80001ba8:	f84a                	sd	s2,48(sp)
    80001baa:	f44e                	sd	s3,40(sp)
    80001bac:	f052                	sd	s4,32(sp)
    80001bae:	ec56                	sd	s5,24(sp)
    80001bb0:	e85a                	sd	s6,16(sp)
    80001bb2:	e45e                	sd	s7,8(sp)
    80001bb4:	e062                	sd	s8,0(sp)
    80001bb6:	0880                	addi	s0,sp,80
    80001bb8:	8b2a                	mv	s6,a0
    80001bba:	8c2e                	mv	s8,a1
    80001bbc:	8a32                	mv	s4,a2
    80001bbe:	89b6                	mv	s3,a3
    va0 = PGROUNDDOWN(dstva);
    80001bc0:	7bfd                	lui	s7,0xfffff
    pa0 = walkaddr(pagetable, va0);
    if(pa0 == 0)
      return -1;
    n = PGSIZE - (dstva - va0);
    80001bc2:	6a85                	lui	s5,0x1
    80001bc4:	a015                	j	80001be8 <copyout+0x4a>
    if(n > len)
      n = len;
    memmove((void *)(pa0 + (dstva - va0)), src, n);
    80001bc6:	9562                	add	a0,a0,s8
    80001bc8:	0004861b          	sext.w	a2,s1
    80001bcc:	85d2                	mv	a1,s4
    80001bce:	41250533          	sub	a0,a0,s2
    80001bd2:	fffff097          	auipc	ra,0xfffff
    80001bd6:	562080e7          	jalr	1378(ra) # 80001134 <memmove>

    len -= n;
    80001bda:	409989b3          	sub	s3,s3,s1
    src += n;
    80001bde:	9a26                	add	s4,s4,s1
    dstva = va0 + PGSIZE;
    80001be0:	01590c33          	add	s8,s2,s5
  while(len > 0){
    80001be4:	02098263          	beqz	s3,80001c08 <copyout+0x6a>
    va0 = PGROUNDDOWN(dstva);
    80001be8:	017c7933          	and	s2,s8,s7
    pa0 = walkaddr(pagetable, va0);
    80001bec:	85ca                	mv	a1,s2
    80001bee:	855a                	mv	a0,s6
    80001bf0:	00000097          	auipc	ra,0x0
    80001bf4:	9cc080e7          	jalr	-1588(ra) # 800015bc <walkaddr>
    if(pa0 == 0)
    80001bf8:	cd01                	beqz	a0,80001c10 <copyout+0x72>
    n = PGSIZE - (dstva - va0);
    80001bfa:	418904b3          	sub	s1,s2,s8
    80001bfe:	94d6                	add	s1,s1,s5
    if(n > len)
    80001c00:	fc99f3e3          	bgeu	s3,s1,80001bc6 <copyout+0x28>
    80001c04:	84ce                	mv	s1,s3
    80001c06:	b7c1                	j	80001bc6 <copyout+0x28>
  }
  return 0;
    80001c08:	4501                	li	a0,0
    80001c0a:	a021                	j	80001c12 <copyout+0x74>
    80001c0c:	4501                	li	a0,0
}
    80001c0e:	8082                	ret
      return -1;
    80001c10:	557d                	li	a0,-1
}
    80001c12:	60a6                	ld	ra,72(sp)
    80001c14:	6406                	ld	s0,64(sp)
    80001c16:	74e2                	ld	s1,56(sp)
    80001c18:	7942                	ld	s2,48(sp)
    80001c1a:	79a2                	ld	s3,40(sp)
    80001c1c:	7a02                	ld	s4,32(sp)
    80001c1e:	6ae2                	ld	s5,24(sp)
    80001c20:	6b42                	ld	s6,16(sp)
    80001c22:	6ba2                	ld	s7,8(sp)
    80001c24:	6c02                	ld	s8,0(sp)
    80001c26:	6161                	addi	sp,sp,80
    80001c28:	8082                	ret

0000000080001c2a <copyin>:
int
copyin(pagetable_t pagetable, char *dst, uint64 srcva, uint64 len)
{
  uint64 n, va0, pa0;

  while(len > 0){
    80001c2a:	c6bd                	beqz	a3,80001c98 <copyin+0x6e>
{
    80001c2c:	715d                	addi	sp,sp,-80
    80001c2e:	e486                	sd	ra,72(sp)
    80001c30:	e0a2                	sd	s0,64(sp)
    80001c32:	fc26                	sd	s1,56(sp)
    80001c34:	f84a                	sd	s2,48(sp)
    80001c36:	f44e                	sd	s3,40(sp)
    80001c38:	f052                	sd	s4,32(sp)
    80001c3a:	ec56                	sd	s5,24(sp)
    80001c3c:	e85a                	sd	s6,16(sp)
    80001c3e:	e45e                	sd	s7,8(sp)
    80001c40:	e062                	sd	s8,0(sp)
    80001c42:	0880                	addi	s0,sp,80
    80001c44:	8b2a                	mv	s6,a0
    80001c46:	8a2e                	mv	s4,a1
    80001c48:	8c32                	mv	s8,a2
    80001c4a:	89b6                	mv	s3,a3
    va0 = PGROUNDDOWN(srcva);
    80001c4c:	7bfd                	lui	s7,0xfffff
    pa0 = walkaddr(pagetable, va0);
    if(pa0 == 0)
      return -1;
    n = PGSIZE - (srcva - va0);
    80001c4e:	6a85                	lui	s5,0x1
    80001c50:	a015                	j	80001c74 <copyin+0x4a>
    if(n > len)
      n = len;
    memmove(dst, (void *)(pa0 + (srcva - va0)), n);
    80001c52:	9562                	add	a0,a0,s8
    80001c54:	0004861b          	sext.w	a2,s1
    80001c58:	412505b3          	sub	a1,a0,s2
    80001c5c:	8552                	mv	a0,s4
    80001c5e:	fffff097          	auipc	ra,0xfffff
    80001c62:	4d6080e7          	jalr	1238(ra) # 80001134 <memmove>

    len -= n;
    80001c66:	409989b3          	sub	s3,s3,s1
    dst += n;
    80001c6a:	9a26                	add	s4,s4,s1
    srcva = va0 + PGSIZE;
    80001c6c:	01590c33          	add	s8,s2,s5
  while(len > 0){
    80001c70:	02098263          	beqz	s3,80001c94 <copyin+0x6a>
    va0 = PGROUNDDOWN(srcva);
    80001c74:	017c7933          	and	s2,s8,s7
    pa0 = walkaddr(pagetable, va0);
    80001c78:	85ca                	mv	a1,s2
    80001c7a:	855a                	mv	a0,s6
    80001c7c:	00000097          	auipc	ra,0x0
    80001c80:	940080e7          	jalr	-1728(ra) # 800015bc <walkaddr>
    if(pa0 == 0)
    80001c84:	cd01                	beqz	a0,80001c9c <copyin+0x72>
    n = PGSIZE - (srcva - va0);
    80001c86:	418904b3          	sub	s1,s2,s8
    80001c8a:	94d6                	add	s1,s1,s5
    if(n > len)
    80001c8c:	fc99f3e3          	bgeu	s3,s1,80001c52 <copyin+0x28>
    80001c90:	84ce                	mv	s1,s3
    80001c92:	b7c1                	j	80001c52 <copyin+0x28>
  }
  return 0;
    80001c94:	4501                	li	a0,0
    80001c96:	a021                	j	80001c9e <copyin+0x74>
    80001c98:	4501                	li	a0,0
}
    80001c9a:	8082                	ret
      return -1;
    80001c9c:	557d                	li	a0,-1
}
    80001c9e:	60a6                	ld	ra,72(sp)
    80001ca0:	6406                	ld	s0,64(sp)
    80001ca2:	74e2                	ld	s1,56(sp)
    80001ca4:	7942                	ld	s2,48(sp)
    80001ca6:	79a2                	ld	s3,40(sp)
    80001ca8:	7a02                	ld	s4,32(sp)
    80001caa:	6ae2                	ld	s5,24(sp)
    80001cac:	6b42                	ld	s6,16(sp)
    80001cae:	6ba2                	ld	s7,8(sp)
    80001cb0:	6c02                	ld	s8,0(sp)
    80001cb2:	6161                	addi	sp,sp,80
    80001cb4:	8082                	ret

0000000080001cb6 <copyinstr>:
copyinstr(pagetable_t pagetable, char *dst, uint64 srcva, uint64 max)
{
  uint64 n, va0, pa0;
  int got_null = 0;

  while(got_null == 0 && max > 0){
    80001cb6:	c6c5                	beqz	a3,80001d5e <copyinstr+0xa8>
{
    80001cb8:	715d                	addi	sp,sp,-80
    80001cba:	e486                	sd	ra,72(sp)
    80001cbc:	e0a2                	sd	s0,64(sp)
    80001cbe:	fc26                	sd	s1,56(sp)
    80001cc0:	f84a                	sd	s2,48(sp)
    80001cc2:	f44e                	sd	s3,40(sp)
    80001cc4:	f052                	sd	s4,32(sp)
    80001cc6:	ec56                	sd	s5,24(sp)
    80001cc8:	e85a                	sd	s6,16(sp)
    80001cca:	e45e                	sd	s7,8(sp)
    80001ccc:	0880                	addi	s0,sp,80
    80001cce:	8a2a                	mv	s4,a0
    80001cd0:	8b2e                	mv	s6,a1
    80001cd2:	8bb2                	mv	s7,a2
    80001cd4:	84b6                	mv	s1,a3
    va0 = PGROUNDDOWN(srcva);
    80001cd6:	7afd                	lui	s5,0xfffff
    pa0 = walkaddr(pagetable, va0);
    if(pa0 == 0)
      return -1;
    n = PGSIZE - (srcva - va0);
    80001cd8:	6985                	lui	s3,0x1
    80001cda:	a035                	j	80001d06 <copyinstr+0x50>
      n = max;

    char *p = (char *) (pa0 + (srcva - va0));
    while(n > 0){
      if(*p == '\0'){
        *dst = '\0';
    80001cdc:	00078023          	sb	zero,0(a5) # 1000 <_entry-0x7ffff000>
    80001ce0:	4785                	li	a5,1
      dst++;
    }

    srcva = va0 + PGSIZE;
  }
  if(got_null){
    80001ce2:	0017b793          	seqz	a5,a5
    80001ce6:	40f00533          	neg	a0,a5
    return 0;
  } else {
    return -1;
  }
}
    80001cea:	60a6                	ld	ra,72(sp)
    80001cec:	6406                	ld	s0,64(sp)
    80001cee:	74e2                	ld	s1,56(sp)
    80001cf0:	7942                	ld	s2,48(sp)
    80001cf2:	79a2                	ld	s3,40(sp)
    80001cf4:	7a02                	ld	s4,32(sp)
    80001cf6:	6ae2                	ld	s5,24(sp)
    80001cf8:	6b42                	ld	s6,16(sp)
    80001cfa:	6ba2                	ld	s7,8(sp)
    80001cfc:	6161                	addi	sp,sp,80
    80001cfe:	8082                	ret
    srcva = va0 + PGSIZE;
    80001d00:	01390bb3          	add	s7,s2,s3
  while(got_null == 0 && max > 0){
    80001d04:	c8a9                	beqz	s1,80001d56 <copyinstr+0xa0>
    va0 = PGROUNDDOWN(srcva);
    80001d06:	015bf933          	and	s2,s7,s5
    pa0 = walkaddr(pagetable, va0);
    80001d0a:	85ca                	mv	a1,s2
    80001d0c:	8552                	mv	a0,s4
    80001d0e:	00000097          	auipc	ra,0x0
    80001d12:	8ae080e7          	jalr	-1874(ra) # 800015bc <walkaddr>
    if(pa0 == 0)
    80001d16:	c131                	beqz	a0,80001d5a <copyinstr+0xa4>
    n = PGSIZE - (srcva - va0);
    80001d18:	41790833          	sub	a6,s2,s7
    80001d1c:	984e                	add	a6,a6,s3
    if(n > max)
    80001d1e:	0104f363          	bgeu	s1,a6,80001d24 <copyinstr+0x6e>
    80001d22:	8826                	mv	a6,s1
    char *p = (char *) (pa0 + (srcva - va0));
    80001d24:	955e                	add	a0,a0,s7
    80001d26:	41250533          	sub	a0,a0,s2
    while(n > 0){
    80001d2a:	fc080be3          	beqz	a6,80001d00 <copyinstr+0x4a>
    80001d2e:	985a                	add	a6,a6,s6
    80001d30:	87da                	mv	a5,s6
      if(*p == '\0'){
    80001d32:	41650633          	sub	a2,a0,s6
    80001d36:	14fd                	addi	s1,s1,-1
    80001d38:	9b26                	add	s6,s6,s1
    80001d3a:	00f60733          	add	a4,a2,a5
    80001d3e:	00074703          	lbu	a4,0(a4) # fffffffffffff000 <end+0xffffffff7ffd0f54>
    80001d42:	df49                	beqz	a4,80001cdc <copyinstr+0x26>
        *dst = *p;
    80001d44:	00e78023          	sb	a4,0(a5)
      --max;
    80001d48:	40fb04b3          	sub	s1,s6,a5
      dst++;
    80001d4c:	0785                	addi	a5,a5,1
    while(n > 0){
    80001d4e:	ff0796e3          	bne	a5,a6,80001d3a <copyinstr+0x84>
      dst++;
    80001d52:	8b42                	mv	s6,a6
    80001d54:	b775                	j	80001d00 <copyinstr+0x4a>
    80001d56:	4781                	li	a5,0
    80001d58:	b769                	j	80001ce2 <copyinstr+0x2c>
      return -1;
    80001d5a:	557d                	li	a0,-1
    80001d5c:	b779                	j	80001cea <copyinstr+0x34>
  int got_null = 0;
    80001d5e:	4781                	li	a5,0
  if(got_null){
    80001d60:	0017b793          	seqz	a5,a5
    80001d64:	40f00533          	neg	a0,a5
}
    80001d68:	8082                	ret

0000000080001d6a <wakeup1>:

// Wake up p if it is sleeping in wait(); used by exit().
// Caller must hold p->lock.
static void
wakeup1(struct proc *p)
{
    80001d6a:	1101                	addi	sp,sp,-32
    80001d6c:	ec06                	sd	ra,24(sp)
    80001d6e:	e822                	sd	s0,16(sp)
    80001d70:	e426                	sd	s1,8(sp)
    80001d72:	1000                	addi	s0,sp,32
    80001d74:	84aa                	mv	s1,a0
  if(!holding(&p->lock))
    80001d76:	fffff097          	auipc	ra,0xfffff
    80001d7a:	e94080e7          	jalr	-364(ra) # 80000c0a <holding>
    80001d7e:	c909                	beqz	a0,80001d90 <wakeup1+0x26>
    panic("wakeup1");
  if(p->chan == p && p->state == SLEEPING) {
    80001d80:	60bc                	ld	a5,64(s1)
    80001d82:	00978f63          	beq	a5,s1,80001da0 <wakeup1+0x36>
    p->state = RUNNABLE;
  }
}
    80001d86:	60e2                	ld	ra,24(sp)
    80001d88:	6442                	ld	s0,16(sp)
    80001d8a:	64a2                	ld	s1,8(sp)
    80001d8c:	6105                	addi	sp,sp,32
    80001d8e:	8082                	ret
    panic("wakeup1");
    80001d90:	00006517          	auipc	a0,0x6
    80001d94:	7e050513          	addi	a0,a0,2016 # 80008570 <userret+0x4e0>
    80001d98:	fffff097          	auipc	ra,0xfffff
    80001d9c:	9be080e7          	jalr	-1602(ra) # 80000756 <panic>
  if(p->chan == p && p->state == SLEEPING) {
    80001da0:	5898                	lw	a4,48(s1)
    80001da2:	4785                	li	a5,1
    80001da4:	fef711e3          	bne	a4,a5,80001d86 <wakeup1+0x1c>
    p->state = RUNNABLE;
    80001da8:	4789                	li	a5,2
    80001daa:	d89c                	sw	a5,48(s1)
}
    80001dac:	bfe9                	j	80001d86 <wakeup1+0x1c>

0000000080001dae <insert_into_prio_queue>:
void insert_into_prio_queue(struct proc* p){
    80001dae:	1101                	addi	sp,sp,-32
    80001db0:	ec06                	sd	ra,24(sp)
    80001db2:	e822                	sd	s0,16(sp)
    80001db4:	e426                	sd	s1,8(sp)
    80001db6:	1000                	addi	s0,sp,32
    80001db8:	84aa                	mv	s1,a0
  struct list_proc* new = bd_malloc(sizeof(struct list_proc));
    80001dba:	4541                	li	a0,16
    80001dbc:	00005097          	auipc	ra,0x5
    80001dc0:	084080e7          	jalr	132(ra) # 80006e40 <bd_malloc>
  new->next = 0;
    80001dc4:	00053423          	sd	zero,8(a0)
  new->p = p;
    80001dc8:	e104                	sd	s1,0(a0)
  if(!prio[p->priority]){
    80001dca:	48f8                	lw	a4,84(s1)
    80001dcc:	00371693          	slli	a3,a4,0x3
    80001dd0:	00014797          	auipc	a5,0x14
    80001dd4:	c1878793          	addi	a5,a5,-1000 # 800159e8 <prio>
    80001dd8:	97b6                	add	a5,a5,a3
    80001dda:	639c                	ld	a5,0(a5)
    80001ddc:	cb91                	beqz	a5,80001df0 <insert_into_prio_queue+0x42>
    80001dde:	873e                	mv	a4,a5
    while(last && last->next){
    80001de0:	679c                	ld	a5,8(a5)
    80001de2:	fff5                	bnez	a5,80001dde <insert_into_prio_queue+0x30>
    last->next = new;
    80001de4:	e708                	sd	a0,8(a4)
}
    80001de6:	60e2                	ld	ra,24(sp)
    80001de8:	6442                	ld	s0,16(sp)
    80001dea:	64a2                	ld	s1,8(sp)
    80001dec:	6105                	addi	sp,sp,32
    80001dee:	8082                	ret
    prio[p->priority] = new;
    80001df0:	00014797          	auipc	a5,0x14
    80001df4:	bf878793          	addi	a5,a5,-1032 # 800159e8 <prio>
    80001df8:	00d78733          	add	a4,a5,a3
    80001dfc:	e308                	sd	a0,0(a4)
    80001dfe:	b7e5                	j	80001de6 <insert_into_prio_queue+0x38>

0000000080001e00 <remove_from_prio_queue>:
void remove_from_prio_queue(struct proc* p){
    80001e00:	1101                	addi	sp,sp,-32
    80001e02:	ec06                	sd	ra,24(sp)
    80001e04:	e822                	sd	s0,16(sp)
    80001e06:	e426                	sd	s1,8(sp)
    80001e08:	e04a                	sd	s2,0(sp)
    80001e0a:	1000                	addi	s0,sp,32
    80001e0c:	84aa                	mv	s1,a0
  struct list_proc* old = prio[p->priority];
    80001e0e:	497c                	lw	a5,84(a0)
    80001e10:	00379713          	slli	a4,a5,0x3
    80001e14:	00014797          	auipc	a5,0x14
    80001e18:	bd478793          	addi	a5,a5,-1068 # 800159e8 <prio>
    80001e1c:	97ba                	add	a5,a5,a4
    80001e1e:	0007b903          	ld	s2,0(a5)
  while(old){
    80001e22:	02090563          	beqz	s2,80001e4c <remove_from_prio_queue+0x4c>
  struct list_proc* old = prio[p->priority];
    80001e26:	854a                	mv	a0,s2
  struct list_proc* prev = 0;
    80001e28:	4701                	li	a4,0
    80001e2a:	a011                	j	80001e2e <remove_from_prio_queue+0x2e>
    old = old->next;
    80001e2c:	853e                	mv	a0,a5
    if(old->p == p) {
    80001e2e:	611c                	ld	a5,0(a0)
    80001e30:	00978663          	beq	a5,s1,80001e3c <remove_from_prio_queue+0x3c>
    old = old->next;
    80001e34:	651c                	ld	a5,8(a0)
  while(old){
    80001e36:	872a                	mv	a4,a0
    80001e38:	fbf5                	bnez	a5,80001e2c <remove_from_prio_queue+0x2c>
    80001e3a:	a809                	j	80001e4c <remove_from_prio_queue+0x4c>
      if(old == head){
    80001e3c:	02a90863          	beq	s2,a0,80001e6c <remove_from_prio_queue+0x6c>
        prev->next = old->next;
    80001e40:	651c                	ld	a5,8(a0)
    80001e42:	e71c                	sd	a5,8(a4)
      bd_free(old);
    80001e44:	00005097          	auipc	ra,0x5
    80001e48:	1e8080e7          	jalr	488(ra) # 8000702c <bd_free>
  prio[p->priority] = head;
    80001e4c:	48fc                	lw	a5,84(s1)
    80001e4e:	00379713          	slli	a4,a5,0x3
    80001e52:	00014797          	auipc	a5,0x14
    80001e56:	b9678793          	addi	a5,a5,-1130 # 800159e8 <prio>
    80001e5a:	97ba                	add	a5,a5,a4
    80001e5c:	0127b023          	sd	s2,0(a5)
}
    80001e60:	60e2                	ld	ra,24(sp)
    80001e62:	6442                	ld	s0,16(sp)
    80001e64:	64a2                	ld	s1,8(sp)
    80001e66:	6902                	ld	s2,0(sp)
    80001e68:	6105                	addi	sp,sp,32
    80001e6a:	8082                	ret
        head = old->next;
    80001e6c:	00853903          	ld	s2,8(a0)
    80001e70:	bfd1                	j	80001e44 <remove_from_prio_queue+0x44>

0000000080001e72 <procinit>:
{
    80001e72:	715d                	addi	sp,sp,-80
    80001e74:	e486                	sd	ra,72(sp)
    80001e76:	e0a2                	sd	s0,64(sp)
    80001e78:	fc26                	sd	s1,56(sp)
    80001e7a:	f84a                	sd	s2,48(sp)
    80001e7c:	f44e                	sd	s3,40(sp)
    80001e7e:	f052                	sd	s4,32(sp)
    80001e80:	ec56                	sd	s5,24(sp)
    80001e82:	e85a                	sd	s6,16(sp)
    80001e84:	e45e                	sd	s7,8(sp)
    80001e86:	0880                	addi	s0,sp,80
  initlock(&prio_lock, "priolock");
    80001e88:	00014497          	auipc	s1,0x14
    80001e8c:	bb048493          	addi	s1,s1,-1104 # 80015a38 <prio_lock>
    80001e90:	00006597          	auipc	a1,0x6
    80001e94:	6e858593          	addi	a1,a1,1768 # 80008578 <userret+0x4e8>
    80001e98:	8526                	mv	a0,s1
    80001e9a:	fffff097          	auipc	ra,0xfffff
    80001e9e:	c84080e7          	jalr	-892(ra) # 80000b1e <initlock>
  for(int i = 0; i < NPRIO; i++){
    80001ea2:	00014797          	auipc	a5,0x14
    80001ea6:	b4678793          	addi	a5,a5,-1210 # 800159e8 <prio>
    80001eaa:	8526                	mv	a0,s1
    prio[i] = 0;
    80001eac:	0007b023          	sd	zero,0(a5)
  for(int i = 0; i < NPRIO; i++){
    80001eb0:	07a1                	addi	a5,a5,8
    80001eb2:	fea79de3          	bne	a5,a0,80001eac <procinit+0x3a>
  initlock(&pid_lock, "nextpid");
    80001eb6:	00006597          	auipc	a1,0x6
    80001eba:	6d258593          	addi	a1,a1,1746 # 80008588 <userret+0x4f8>
    80001ebe:	00014517          	auipc	a0,0x14
    80001ec2:	baa50513          	addi	a0,a0,-1110 # 80015a68 <pid_lock>
    80001ec6:	fffff097          	auipc	ra,0xfffff
    80001eca:	c58080e7          	jalr	-936(ra) # 80000b1e <initlock>
  for(p = proc; p < &proc[NPROC]; p++) {
    80001ece:	00014917          	auipc	s2,0x14
    80001ed2:	fca90913          	addi	s2,s2,-54 # 80015e98 <proc>
      initlock(&p->lock, "proc");
    80001ed6:	00006b97          	auipc	s7,0x6
    80001eda:	6bab8b93          	addi	s7,s7,1722 # 80008590 <userret+0x500>
      uint64 va = KSTACK((int) (p - proc));
    80001ede:	8b4a                	mv	s6,s2
    80001ee0:	00007a97          	auipc	s5,0x7
    80001ee4:	278a8a93          	addi	s5,s5,632 # 80009158 <syscalls+0xd8>
    80001ee8:	040009b7          	lui	s3,0x4000
    80001eec:	19fd                	addi	s3,s3,-1
    80001eee:	09b2                	slli	s3,s3,0xc
  for(p = proc; p < &proc[NPROC]; p++) {
    80001ef0:	0001aa17          	auipc	s4,0x1a
    80001ef4:	1a8a0a13          	addi	s4,s4,424 # 8001c098 <tickslock>
      initlock(&p->lock, "proc");
    80001ef8:	85de                	mv	a1,s7
    80001efa:	854a                	mv	a0,s2
    80001efc:	fffff097          	auipc	ra,0xfffff
    80001f00:	c22080e7          	jalr	-990(ra) # 80000b1e <initlock>
      char *pa = kalloc();
    80001f04:	fffff097          	auipc	ra,0xfffff
    80001f08:	c00080e7          	jalr	-1024(ra) # 80000b04 <kalloc>
    80001f0c:	85aa                	mv	a1,a0
      if(pa == 0)
    80001f0e:	c929                	beqz	a0,80001f60 <procinit+0xee>
      uint64 va = KSTACK((int) (p - proc));
    80001f10:	416904b3          	sub	s1,s2,s6
    80001f14:	848d                	srai	s1,s1,0x3
    80001f16:	000ab783          	ld	a5,0(s5)
    80001f1a:	02f484b3          	mul	s1,s1,a5
    80001f1e:	2485                	addiw	s1,s1,1
    80001f20:	00d4949b          	slliw	s1,s1,0xd
    80001f24:	409984b3          	sub	s1,s3,s1
      kvmmap(va, (uint64)pa, PGSIZE, PTE_R | PTE_W);
    80001f28:	4699                	li	a3,6
    80001f2a:	6605                	lui	a2,0x1
    80001f2c:	8526                	mv	a0,s1
    80001f2e:	fffff097          	auipc	ra,0xfffff
    80001f32:	7bc080e7          	jalr	1980(ra) # 800016ea <kvmmap>
      p->kstack = va;
    80001f36:	04993c23          	sd	s1,88(s2)
  for(p = proc; p < &proc[NPROC]; p++) {
    80001f3a:	18890913          	addi	s2,s2,392
    80001f3e:	fb491de3          	bne	s2,s4,80001ef8 <procinit+0x86>
  kvminithart();
    80001f42:	fffff097          	auipc	ra,0xfffff
    80001f46:	656080e7          	jalr	1622(ra) # 80001598 <kvminithart>
}
    80001f4a:	60a6                	ld	ra,72(sp)
    80001f4c:	6406                	ld	s0,64(sp)
    80001f4e:	74e2                	ld	s1,56(sp)
    80001f50:	7942                	ld	s2,48(sp)
    80001f52:	79a2                	ld	s3,40(sp)
    80001f54:	7a02                	ld	s4,32(sp)
    80001f56:	6ae2                	ld	s5,24(sp)
    80001f58:	6b42                	ld	s6,16(sp)
    80001f5a:	6ba2                	ld	s7,8(sp)
    80001f5c:	6161                	addi	sp,sp,80
    80001f5e:	8082                	ret
        panic("kalloc");
    80001f60:	00006517          	auipc	a0,0x6
    80001f64:	63850513          	addi	a0,a0,1592 # 80008598 <userret+0x508>
    80001f68:	ffffe097          	auipc	ra,0xffffe
    80001f6c:	7ee080e7          	jalr	2030(ra) # 80000756 <panic>

0000000080001f70 <cpuid>:
{
    80001f70:	1141                	addi	sp,sp,-16
    80001f72:	e422                	sd	s0,8(sp)
    80001f74:	0800                	addi	s0,sp,16
  asm volatile("mv %0, tp" : "=r" (x) );
    80001f76:	8512                	mv	a0,tp
}
    80001f78:	2501                	sext.w	a0,a0
    80001f7a:	6422                	ld	s0,8(sp)
    80001f7c:	0141                	addi	sp,sp,16
    80001f7e:	8082                	ret

0000000080001f80 <mycpu>:
mycpu(void) {
    80001f80:	1141                	addi	sp,sp,-16
    80001f82:	e422                	sd	s0,8(sp)
    80001f84:	0800                	addi	s0,sp,16
    80001f86:	8792                	mv	a5,tp
  struct cpu *c = &cpus[id];
    80001f88:	2781                	sext.w	a5,a5
    80001f8a:	079e                	slli	a5,a5,0x7
}
    80001f8c:	00014517          	auipc	a0,0x14
    80001f90:	b0c50513          	addi	a0,a0,-1268 # 80015a98 <cpus>
    80001f94:	953e                	add	a0,a0,a5
    80001f96:	6422                	ld	s0,8(sp)
    80001f98:	0141                	addi	sp,sp,16
    80001f9a:	8082                	ret

0000000080001f9c <myproc>:
myproc(void) {
    80001f9c:	1101                	addi	sp,sp,-32
    80001f9e:	ec06                	sd	ra,24(sp)
    80001fa0:	e822                	sd	s0,16(sp)
    80001fa2:	e426                	sd	s1,8(sp)
    80001fa4:	1000                	addi	s0,sp,32
  push_off();
    80001fa6:	fffff097          	auipc	ra,0xfffff
    80001faa:	c92080e7          	jalr	-878(ra) # 80000c38 <push_off>
    80001fae:	8792                	mv	a5,tp
  struct proc *p = c->proc;
    80001fb0:	2781                	sext.w	a5,a5
    80001fb2:	079e                	slli	a5,a5,0x7
    80001fb4:	00014717          	auipc	a4,0x14
    80001fb8:	a3470713          	addi	a4,a4,-1484 # 800159e8 <prio>
    80001fbc:	97ba                	add	a5,a5,a4
    80001fbe:	7bc4                	ld	s1,176(a5)
  pop_off();
    80001fc0:	fffff097          	auipc	ra,0xfffff
    80001fc4:	eb4080e7          	jalr	-332(ra) # 80000e74 <pop_off>
}
    80001fc8:	8526                	mv	a0,s1
    80001fca:	60e2                	ld	ra,24(sp)
    80001fcc:	6442                	ld	s0,16(sp)
    80001fce:	64a2                	ld	s1,8(sp)
    80001fd0:	6105                	addi	sp,sp,32
    80001fd2:	8082                	ret

0000000080001fd4 <forkret>:
{
    80001fd4:	1141                	addi	sp,sp,-16
    80001fd6:	e406                	sd	ra,8(sp)
    80001fd8:	e022                	sd	s0,0(sp)
    80001fda:	0800                	addi	s0,sp,16
  release(&myproc()->lock);
    80001fdc:	00000097          	auipc	ra,0x0
    80001fe0:	fc0080e7          	jalr	-64(ra) # 80001f9c <myproc>
    80001fe4:	fffff097          	auipc	ra,0xfffff
    80001fe8:	ef0080e7          	jalr	-272(ra) # 80000ed4 <release>
  if (first) {
    80001fec:	00008797          	auipc	a5,0x8
    80001ff0:	06c7a783          	lw	a5,108(a5) # 8000a058 <first.1787>
    80001ff4:	eb89                	bnez	a5,80002006 <forkret+0x32>
  usertrapret();
    80001ff6:	00001097          	auipc	ra,0x1
    80001ffa:	d6c080e7          	jalr	-660(ra) # 80002d62 <usertrapret>
}
    80001ffe:	60a2                	ld	ra,8(sp)
    80002000:	6402                	ld	s0,0(sp)
    80002002:	0141                	addi	sp,sp,16
    80002004:	8082                	ret
    first = 0;
    80002006:	00008797          	auipc	a5,0x8
    8000200a:	0407a923          	sw	zero,82(a5) # 8000a058 <first.1787>
    fsinit(minor(ROOTDEV));
    8000200e:	4501                	li	a0,0
    80002010:	00002097          	auipc	ra,0x2
    80002014:	b0c080e7          	jalr	-1268(ra) # 80003b1c <fsinit>
    80002018:	bff9                	j	80001ff6 <forkret+0x22>

000000008000201a <allocpid>:
allocpid() {
    8000201a:	1101                	addi	sp,sp,-32
    8000201c:	ec06                	sd	ra,24(sp)
    8000201e:	e822                	sd	s0,16(sp)
    80002020:	e426                	sd	s1,8(sp)
    80002022:	e04a                	sd	s2,0(sp)
    80002024:	1000                	addi	s0,sp,32
  acquire(&pid_lock);
    80002026:	00014917          	auipc	s2,0x14
    8000202a:	a4290913          	addi	s2,s2,-1470 # 80015a68 <pid_lock>
    8000202e:	854a                	mv	a0,s2
    80002030:	fffff097          	auipc	ra,0xfffff
    80002034:	c58080e7          	jalr	-936(ra) # 80000c88 <acquire>
  pid = nextpid;
    80002038:	00008797          	auipc	a5,0x8
    8000203c:	02478793          	addi	a5,a5,36 # 8000a05c <nextpid>
    80002040:	4384                	lw	s1,0(a5)
  nextpid = nextpid + 1;
    80002042:	0014871b          	addiw	a4,s1,1
    80002046:	c398                	sw	a4,0(a5)
  release(&pid_lock);
    80002048:	854a                	mv	a0,s2
    8000204a:	fffff097          	auipc	ra,0xfffff
    8000204e:	e8a080e7          	jalr	-374(ra) # 80000ed4 <release>
}
    80002052:	8526                	mv	a0,s1
    80002054:	60e2                	ld	ra,24(sp)
    80002056:	6442                	ld	s0,16(sp)
    80002058:	64a2                	ld	s1,8(sp)
    8000205a:	6902                	ld	s2,0(sp)
    8000205c:	6105                	addi	sp,sp,32
    8000205e:	8082                	ret

0000000080002060 <proc_pagetable>:
{
    80002060:	1101                	addi	sp,sp,-32
    80002062:	ec06                	sd	ra,24(sp)
    80002064:	e822                	sd	s0,16(sp)
    80002066:	e426                	sd	s1,8(sp)
    80002068:	e04a                	sd	s2,0(sp)
    8000206a:	1000                	addi	s0,sp,32
    8000206c:	892a                	mv	s2,a0
  pagetable = uvmcreate();
    8000206e:	00000097          	auipc	ra,0x0
    80002072:	862080e7          	jalr	-1950(ra) # 800018d0 <uvmcreate>
    80002076:	84aa                	mv	s1,a0
  mappages(pagetable, TRAMPOLINE, PGSIZE,
    80002078:	4729                	li	a4,10
    8000207a:	00006697          	auipc	a3,0x6
    8000207e:	f8668693          	addi	a3,a3,-122 # 80008000 <trampoline>
    80002082:	6605                	lui	a2,0x1
    80002084:	040005b7          	lui	a1,0x4000
    80002088:	15fd                	addi	a1,a1,-1
    8000208a:	05b2                	slli	a1,a1,0xc
    8000208c:	fffff097          	auipc	ra,0xfffff
    80002090:	5d0080e7          	jalr	1488(ra) # 8000165c <mappages>
  mappages(pagetable, TRAPFRAME, PGSIZE,
    80002094:	4719                	li	a4,6
    80002096:	07093683          	ld	a3,112(s2)
    8000209a:	6605                	lui	a2,0x1
    8000209c:	020005b7          	lui	a1,0x2000
    800020a0:	15fd                	addi	a1,a1,-1
    800020a2:	05b6                	slli	a1,a1,0xd
    800020a4:	8526                	mv	a0,s1
    800020a6:	fffff097          	auipc	ra,0xfffff
    800020aa:	5b6080e7          	jalr	1462(ra) # 8000165c <mappages>
}
    800020ae:	8526                	mv	a0,s1
    800020b0:	60e2                	ld	ra,24(sp)
    800020b2:	6442                	ld	s0,16(sp)
    800020b4:	64a2                	ld	s1,8(sp)
    800020b6:	6902                	ld	s2,0(sp)
    800020b8:	6105                	addi	sp,sp,32
    800020ba:	8082                	ret

00000000800020bc <allocproc>:
{
    800020bc:	1101                	addi	sp,sp,-32
    800020be:	ec06                	sd	ra,24(sp)
    800020c0:	e822                	sd	s0,16(sp)
    800020c2:	e426                	sd	s1,8(sp)
    800020c4:	e04a                	sd	s2,0(sp)
    800020c6:	1000                	addi	s0,sp,32
  for(p = proc; p < &proc[NPROC]; p++) {
    800020c8:	00014497          	auipc	s1,0x14
    800020cc:	dd048493          	addi	s1,s1,-560 # 80015e98 <proc>
    800020d0:	0001a917          	auipc	s2,0x1a
    800020d4:	fc890913          	addi	s2,s2,-56 # 8001c098 <tickslock>
    acquire(&p->lock);
    800020d8:	8526                	mv	a0,s1
    800020da:	fffff097          	auipc	ra,0xfffff
    800020de:	bae080e7          	jalr	-1106(ra) # 80000c88 <acquire>
    if(p->state == UNUSED) {
    800020e2:	589c                	lw	a5,48(s1)
    800020e4:	cf81                	beqz	a5,800020fc <allocproc+0x40>
      release(&p->lock);
    800020e6:	8526                	mv	a0,s1
    800020e8:	fffff097          	auipc	ra,0xfffff
    800020ec:	dec080e7          	jalr	-532(ra) # 80000ed4 <release>
  for(p = proc; p < &proc[NPROC]; p++) {
    800020f0:	18848493          	addi	s1,s1,392
    800020f4:	ff2492e3          	bne	s1,s2,800020d8 <allocproc+0x1c>
  return 0;
    800020f8:	4481                	li	s1,0
    800020fa:	a0b9                	j	80002148 <allocproc+0x8c>
  p->pid = allocpid();
    800020fc:	00000097          	auipc	ra,0x0
    80002100:	f1e080e7          	jalr	-226(ra) # 8000201a <allocpid>
    80002104:	c8a8                	sw	a0,80(s1)
  if((p->tf = (struct trapframe *)kalloc()) == 0){
    80002106:	fffff097          	auipc	ra,0xfffff
    8000210a:	9fe080e7          	jalr	-1538(ra) # 80000b04 <kalloc>
    8000210e:	892a                	mv	s2,a0
    80002110:	f8a8                	sd	a0,112(s1)
    80002112:	c131                	beqz	a0,80002156 <allocproc+0x9a>
  p->pagetable = proc_pagetable(p);
    80002114:	8526                	mv	a0,s1
    80002116:	00000097          	auipc	ra,0x0
    8000211a:	f4a080e7          	jalr	-182(ra) # 80002060 <proc_pagetable>
    8000211e:	f4a8                	sd	a0,104(s1)
  p->priority = DEF_PRIO;
    80002120:	4795                	li	a5,5
    80002122:	c8fc                	sw	a5,84(s1)
  memset(&p->context, 0, sizeof p->context);
    80002124:	07000613          	li	a2,112
    80002128:	4581                	li	a1,0
    8000212a:	07848513          	addi	a0,s1,120
    8000212e:	fffff097          	auipc	ra,0xfffff
    80002132:	fa6080e7          	jalr	-90(ra) # 800010d4 <memset>
  p->context.ra = (uint64)forkret;
    80002136:	00000797          	auipc	a5,0x0
    8000213a:	e9e78793          	addi	a5,a5,-354 # 80001fd4 <forkret>
    8000213e:	fcbc                	sd	a5,120(s1)
  p->context.sp = p->kstack + PGSIZE;
    80002140:	6cbc                	ld	a5,88(s1)
    80002142:	6705                	lui	a4,0x1
    80002144:	97ba                	add	a5,a5,a4
    80002146:	e0dc                	sd	a5,128(s1)
}
    80002148:	8526                	mv	a0,s1
    8000214a:	60e2                	ld	ra,24(sp)
    8000214c:	6442                	ld	s0,16(sp)
    8000214e:	64a2                	ld	s1,8(sp)
    80002150:	6902                	ld	s2,0(sp)
    80002152:	6105                	addi	sp,sp,32
    80002154:	8082                	ret
    release(&p->lock);
    80002156:	8526                	mv	a0,s1
    80002158:	fffff097          	auipc	ra,0xfffff
    8000215c:	d7c080e7          	jalr	-644(ra) # 80000ed4 <release>
    return 0;
    80002160:	84ca                	mv	s1,s2
    80002162:	b7dd                	j	80002148 <allocproc+0x8c>

0000000080002164 <proc_freepagetable>:
{
    80002164:	1101                	addi	sp,sp,-32
    80002166:	ec06                	sd	ra,24(sp)
    80002168:	e822                	sd	s0,16(sp)
    8000216a:	e426                	sd	s1,8(sp)
    8000216c:	e04a                	sd	s2,0(sp)
    8000216e:	1000                	addi	s0,sp,32
    80002170:	84aa                	mv	s1,a0
    80002172:	892e                	mv	s2,a1
  uvmunmap(pagetable, TRAMPOLINE, PGSIZE, 0);
    80002174:	4681                	li	a3,0
    80002176:	6605                	lui	a2,0x1
    80002178:	040005b7          	lui	a1,0x4000
    8000217c:	15fd                	addi	a1,a1,-1
    8000217e:	05b2                	slli	a1,a1,0xc
    80002180:	fffff097          	auipc	ra,0xfffff
    80002184:	688080e7          	jalr	1672(ra) # 80001808 <uvmunmap>
  uvmunmap(pagetable, TRAPFRAME, PGSIZE, 0);
    80002188:	4681                	li	a3,0
    8000218a:	6605                	lui	a2,0x1
    8000218c:	020005b7          	lui	a1,0x2000
    80002190:	15fd                	addi	a1,a1,-1
    80002192:	05b6                	slli	a1,a1,0xd
    80002194:	8526                	mv	a0,s1
    80002196:	fffff097          	auipc	ra,0xfffff
    8000219a:	672080e7          	jalr	1650(ra) # 80001808 <uvmunmap>
  if(sz > 0)
    8000219e:	00091863          	bnez	s2,800021ae <proc_freepagetable+0x4a>
}
    800021a2:	60e2                	ld	ra,24(sp)
    800021a4:	6442                	ld	s0,16(sp)
    800021a6:	64a2                	ld	s1,8(sp)
    800021a8:	6902                	ld	s2,0(sp)
    800021aa:	6105                	addi	sp,sp,32
    800021ac:	8082                	ret
    uvmfree(pagetable, sz);
    800021ae:	85ca                	mv	a1,s2
    800021b0:	8526                	mv	a0,s1
    800021b2:	00000097          	auipc	ra,0x0
    800021b6:	8bc080e7          	jalr	-1860(ra) # 80001a6e <uvmfree>
}
    800021ba:	b7e5                	j	800021a2 <proc_freepagetable+0x3e>

00000000800021bc <freeproc>:
{
    800021bc:	1101                	addi	sp,sp,-32
    800021be:	ec06                	sd	ra,24(sp)
    800021c0:	e822                	sd	s0,16(sp)
    800021c2:	e426                	sd	s1,8(sp)
    800021c4:	1000                	addi	s0,sp,32
    800021c6:	84aa                	mv	s1,a0
  if(p->tf)
    800021c8:	7928                	ld	a0,112(a0)
    800021ca:	c509                	beqz	a0,800021d4 <freeproc+0x18>
    kfree((void*)p->tf);
    800021cc:	fffff097          	auipc	ra,0xfffff
    800021d0:	920080e7          	jalr	-1760(ra) # 80000aec <kfree>
  p->tf = 0;
    800021d4:	0604b823          	sd	zero,112(s1)
  if(p->pagetable)
    800021d8:	74a8                	ld	a0,104(s1)
    800021da:	c511                	beqz	a0,800021e6 <freeproc+0x2a>
    proc_freepagetable(p->pagetable, p->sz);
    800021dc:	70ac                	ld	a1,96(s1)
    800021de:	00000097          	auipc	ra,0x0
    800021e2:	f86080e7          	jalr	-122(ra) # 80002164 <proc_freepagetable>
  if(p->cmd)
    800021e6:	1804b503          	ld	a0,384(s1)
    800021ea:	c509                	beqz	a0,800021f4 <freeproc+0x38>
    bd_free(p->cmd);
    800021ec:	00005097          	auipc	ra,0x5
    800021f0:	e40080e7          	jalr	-448(ra) # 8000702c <bd_free>
  p->cmd = 0;
    800021f4:	1804b023          	sd	zero,384(s1)
  p->priority = 0;
    800021f8:	0404aa23          	sw	zero,84(s1)
  p->pagetable = 0;
    800021fc:	0604b423          	sd	zero,104(s1)
  p->sz = 0;
    80002200:	0604b023          	sd	zero,96(s1)
  p->pid = 0;
    80002204:	0404a823          	sw	zero,80(s1)
  p->parent = 0;
    80002208:	0204bc23          	sd	zero,56(s1)
  p->name[0] = 0;
    8000220c:	16048823          	sb	zero,368(s1)
  p->chan = 0;
    80002210:	0404b023          	sd	zero,64(s1)
  p->killed = 0;
    80002214:	0404a423          	sw	zero,72(s1)
  p->xstate = 0;
    80002218:	0404a623          	sw	zero,76(s1)
  p->state = UNUSED;
    8000221c:	0204a823          	sw	zero,48(s1)
}
    80002220:	60e2                	ld	ra,24(sp)
    80002222:	6442                	ld	s0,16(sp)
    80002224:	64a2                	ld	s1,8(sp)
    80002226:	6105                	addi	sp,sp,32
    80002228:	8082                	ret

000000008000222a <userinit>:
{
    8000222a:	1101                	addi	sp,sp,-32
    8000222c:	ec06                	sd	ra,24(sp)
    8000222e:	e822                	sd	s0,16(sp)
    80002230:	e426                	sd	s1,8(sp)
    80002232:	e04a                	sd	s2,0(sp)
    80002234:	1000                	addi	s0,sp,32
  p = allocproc();
    80002236:	00000097          	auipc	ra,0x0
    8000223a:	e86080e7          	jalr	-378(ra) # 800020bc <allocproc>
    8000223e:	84aa                	mv	s1,a0
  initproc = p;
    80002240:	0002c797          	auipc	a5,0x2c
    80002244:	e4a7b023          	sd	a0,-448(a5) # 8002e080 <initproc>
  uvminit(p->pagetable, initcode, sizeof(initcode));
    80002248:	03300613          	li	a2,51
    8000224c:	00008597          	auipc	a1,0x8
    80002250:	db458593          	addi	a1,a1,-588 # 8000a000 <initcode>
    80002254:	7528                	ld	a0,104(a0)
    80002256:	fffff097          	auipc	ra,0xfffff
    8000225a:	6b8080e7          	jalr	1720(ra) # 8000190e <uvminit>
  p->sz = PGSIZE;
    8000225e:	6785                	lui	a5,0x1
    80002260:	f0bc                	sd	a5,96(s1)
  p->tf->epc = 0;      // user program counter
    80002262:	78b8                	ld	a4,112(s1)
    80002264:	00073c23          	sd	zero,24(a4) # 1018 <_entry-0x7fffefe8>
  p->tf->sp = PGSIZE;  // user stack pointer
    80002268:	78b8                	ld	a4,112(s1)
    8000226a:	fb1c                	sd	a5,48(a4)
  safestrcpy(p->name, "initcode", sizeof(p->name));
    8000226c:	4641                	li	a2,16
    8000226e:	00006597          	auipc	a1,0x6
    80002272:	33258593          	addi	a1,a1,818 # 800085a0 <userret+0x510>
    80002276:	17048513          	addi	a0,s1,368
    8000227a:	fffff097          	auipc	ra,0xfffff
    8000227e:	fb0080e7          	jalr	-80(ra) # 8000122a <safestrcpy>
  p->cmd = strdup("init");
    80002282:	00006517          	auipc	a0,0x6
    80002286:	32e50513          	addi	a0,a0,814 # 800085b0 <userret+0x520>
    8000228a:	fffff097          	auipc	ra,0xfffff
    8000228e:	09a080e7          	jalr	154(ra) # 80001324 <strdup>
    80002292:	18a4b023          	sd	a0,384(s1)
  p->cwd = namei("/");
    80002296:	00006517          	auipc	a0,0x6
    8000229a:	32250513          	addi	a0,a0,802 # 800085b8 <userret+0x528>
    8000229e:	00002097          	auipc	ra,0x2
    800022a2:	280080e7          	jalr	640(ra) # 8000451e <namei>
    800022a6:	16a4b423          	sd	a0,360(s1)
  p->state = RUNNABLE;
    800022aa:	4789                	li	a5,2
    800022ac:	d89c                	sw	a5,48(s1)
  acquire(&prio_lock);
    800022ae:	00013917          	auipc	s2,0x13
    800022b2:	78a90913          	addi	s2,s2,1930 # 80015a38 <prio_lock>
    800022b6:	854a                	mv	a0,s2
    800022b8:	fffff097          	auipc	ra,0xfffff
    800022bc:	9d0080e7          	jalr	-1584(ra) # 80000c88 <acquire>
  acquire(&p->lock);
    800022c0:	8526                	mv	a0,s1
    800022c2:	fffff097          	auipc	ra,0xfffff
    800022c6:	9c6080e7          	jalr	-1594(ra) # 80000c88 <acquire>
  insert_into_prio_queue(p);
    800022ca:	8526                	mv	a0,s1
    800022cc:	00000097          	auipc	ra,0x0
    800022d0:	ae2080e7          	jalr	-1310(ra) # 80001dae <insert_into_prio_queue>
  release(&p->lock);
    800022d4:	8526                	mv	a0,s1
    800022d6:	fffff097          	auipc	ra,0xfffff
    800022da:	bfe080e7          	jalr	-1026(ra) # 80000ed4 <release>
  release(&prio_lock);
    800022de:	854a                	mv	a0,s2
    800022e0:	fffff097          	auipc	ra,0xfffff
    800022e4:	bf4080e7          	jalr	-1036(ra) # 80000ed4 <release>
}
    800022e8:	60e2                	ld	ra,24(sp)
    800022ea:	6442                	ld	s0,16(sp)
    800022ec:	64a2                	ld	s1,8(sp)
    800022ee:	6902                	ld	s2,0(sp)
    800022f0:	6105                	addi	sp,sp,32
    800022f2:	8082                	ret

00000000800022f4 <growproc>:
{
    800022f4:	1101                	addi	sp,sp,-32
    800022f6:	ec06                	sd	ra,24(sp)
    800022f8:	e822                	sd	s0,16(sp)
    800022fa:	e426                	sd	s1,8(sp)
    800022fc:	e04a                	sd	s2,0(sp)
    800022fe:	1000                	addi	s0,sp,32
    80002300:	84aa                	mv	s1,a0
  struct proc *p = myproc();
    80002302:	00000097          	auipc	ra,0x0
    80002306:	c9a080e7          	jalr	-870(ra) # 80001f9c <myproc>
    8000230a:	892a                	mv	s2,a0
  sz = p->sz;
    8000230c:	712c                	ld	a1,96(a0)
    8000230e:	0005861b          	sext.w	a2,a1
  if(n > 0){
    80002312:	00904f63          	bgtz	s1,80002330 <growproc+0x3c>
  } else if(n < 0){
    80002316:	0204cc63          	bltz	s1,8000234e <growproc+0x5a>
  p->sz = sz;
    8000231a:	1602                	slli	a2,a2,0x20
    8000231c:	9201                	srli	a2,a2,0x20
    8000231e:	06c93023          	sd	a2,96(s2)
  return 0;
    80002322:	4501                	li	a0,0
}
    80002324:	60e2                	ld	ra,24(sp)
    80002326:	6442                	ld	s0,16(sp)
    80002328:	64a2                	ld	s1,8(sp)
    8000232a:	6902                	ld	s2,0(sp)
    8000232c:	6105                	addi	sp,sp,32
    8000232e:	8082                	ret
    if((sz = uvmalloc(p->pagetable, sz, sz + n)) == 0) {
    80002330:	9e25                	addw	a2,a2,s1
    80002332:	1602                	slli	a2,a2,0x20
    80002334:	9201                	srli	a2,a2,0x20
    80002336:	1582                	slli	a1,a1,0x20
    80002338:	9181                	srli	a1,a1,0x20
    8000233a:	7528                	ld	a0,104(a0)
    8000233c:	fffff097          	auipc	ra,0xfffff
    80002340:	688080e7          	jalr	1672(ra) # 800019c4 <uvmalloc>
    80002344:	0005061b          	sext.w	a2,a0
    80002348:	fa69                	bnez	a2,8000231a <growproc+0x26>
      return -1;
    8000234a:	557d                	li	a0,-1
    8000234c:	bfe1                	j	80002324 <growproc+0x30>
    sz = uvmdealloc(p->pagetable, sz, sz + n);
    8000234e:	9e25                	addw	a2,a2,s1
    80002350:	1602                	slli	a2,a2,0x20
    80002352:	9201                	srli	a2,a2,0x20
    80002354:	1582                	slli	a1,a1,0x20
    80002356:	9181                	srli	a1,a1,0x20
    80002358:	7528                	ld	a0,104(a0)
    8000235a:	fffff097          	auipc	ra,0xfffff
    8000235e:	626080e7          	jalr	1574(ra) # 80001980 <uvmdealloc>
    80002362:	0005061b          	sext.w	a2,a0
    80002366:	bf55                	j	8000231a <growproc+0x26>

0000000080002368 <fork>:
{
    80002368:	7179                	addi	sp,sp,-48
    8000236a:	f406                	sd	ra,40(sp)
    8000236c:	f022                	sd	s0,32(sp)
    8000236e:	ec26                	sd	s1,24(sp)
    80002370:	e84a                	sd	s2,16(sp)
    80002372:	e44e                	sd	s3,8(sp)
    80002374:	e052                	sd	s4,0(sp)
    80002376:	1800                	addi	s0,sp,48
  struct proc *p = myproc();
    80002378:	00000097          	auipc	ra,0x0
    8000237c:	c24080e7          	jalr	-988(ra) # 80001f9c <myproc>
    80002380:	892a                	mv	s2,a0
  if((np = allocproc()) == 0){
    80002382:	00000097          	auipc	ra,0x0
    80002386:	d3a080e7          	jalr	-710(ra) # 800020bc <allocproc>
    8000238a:	c975                	beqz	a0,8000247e <fork+0x116>
    8000238c:	89aa                	mv	s3,a0
  if(uvmcopy(p->pagetable, np->pagetable, p->sz) < 0){
    8000238e:	06093603          	ld	a2,96(s2)
    80002392:	752c                	ld	a1,104(a0)
    80002394:	06893503          	ld	a0,104(s2)
    80002398:	fffff097          	auipc	ra,0xfffff
    8000239c:	704080e7          	jalr	1796(ra) # 80001a9c <uvmcopy>
    800023a0:	04054863          	bltz	a0,800023f0 <fork+0x88>
  np->sz = p->sz;
    800023a4:	06093783          	ld	a5,96(s2)
    800023a8:	06f9b023          	sd	a5,96(s3) # 4000060 <_entry-0x7bffffa0>
  np->parent = p;
    800023ac:	0329bc23          	sd	s2,56(s3)
  *(np->tf) = *(p->tf);
    800023b0:	07093683          	ld	a3,112(s2)
    800023b4:	87b6                	mv	a5,a3
    800023b6:	0709b703          	ld	a4,112(s3)
    800023ba:	12068693          	addi	a3,a3,288
    800023be:	0007b803          	ld	a6,0(a5) # 1000 <_entry-0x7ffff000>
    800023c2:	6788                	ld	a0,8(a5)
    800023c4:	6b8c                	ld	a1,16(a5)
    800023c6:	6f90                	ld	a2,24(a5)
    800023c8:	01073023          	sd	a6,0(a4)
    800023cc:	e708                	sd	a0,8(a4)
    800023ce:	eb0c                	sd	a1,16(a4)
    800023d0:	ef10                	sd	a2,24(a4)
    800023d2:	02078793          	addi	a5,a5,32
    800023d6:	02070713          	addi	a4,a4,32
    800023da:	fed792e3          	bne	a5,a3,800023be <fork+0x56>
  np->tf->a0 = 0;
    800023de:	0709b783          	ld	a5,112(s3)
    800023e2:	0607b823          	sd	zero,112(a5)
    800023e6:	0e800493          	li	s1,232
  for(i = 0; i < NOFILE; i++)
    800023ea:	16800a13          	li	s4,360
    800023ee:	a03d                	j	8000241c <fork+0xb4>
    freeproc(np);
    800023f0:	854e                	mv	a0,s3
    800023f2:	00000097          	auipc	ra,0x0
    800023f6:	dca080e7          	jalr	-566(ra) # 800021bc <freeproc>
    release(&np->lock);
    800023fa:	854e                	mv	a0,s3
    800023fc:	fffff097          	auipc	ra,0xfffff
    80002400:	ad8080e7          	jalr	-1320(ra) # 80000ed4 <release>
    return -1;
    80002404:	54fd                	li	s1,-1
    80002406:	a09d                	j	8000246c <fork+0x104>
      np->ofile[i] = filedup(p->ofile[i]);
    80002408:	00003097          	auipc	ra,0x3
    8000240c:	894080e7          	jalr	-1900(ra) # 80004c9c <filedup>
    80002410:	009987b3          	add	a5,s3,s1
    80002414:	e388                	sd	a0,0(a5)
  for(i = 0; i < NOFILE; i++)
    80002416:	04a1                	addi	s1,s1,8
    80002418:	01448763          	beq	s1,s4,80002426 <fork+0xbe>
    if(p->ofile[i])
    8000241c:	009907b3          	add	a5,s2,s1
    80002420:	6388                	ld	a0,0(a5)
    80002422:	f17d                	bnez	a0,80002408 <fork+0xa0>
    80002424:	bfcd                	j	80002416 <fork+0xae>
  np->cwd = idup(p->cwd);
    80002426:	16893503          	ld	a0,360(s2)
    8000242a:	00002097          	auipc	ra,0x2
    8000242e:	92c080e7          	jalr	-1748(ra) # 80003d56 <idup>
    80002432:	16a9b423          	sd	a0,360(s3)
  safestrcpy(np->name, p->name, sizeof(p->name));
    80002436:	4641                	li	a2,16
    80002438:	17090593          	addi	a1,s2,368
    8000243c:	17098513          	addi	a0,s3,368
    80002440:	fffff097          	auipc	ra,0xfffff
    80002444:	dea080e7          	jalr	-534(ra) # 8000122a <safestrcpy>
  np->cmd = strdup(p->cmd);
    80002448:	18093503          	ld	a0,384(s2)
    8000244c:	fffff097          	auipc	ra,0xfffff
    80002450:	ed8080e7          	jalr	-296(ra) # 80001324 <strdup>
    80002454:	18a9b023          	sd	a0,384(s3)
  pid = np->pid;
    80002458:	0509a483          	lw	s1,80(s3)
  np->state = RUNNABLE;
    8000245c:	4789                	li	a5,2
    8000245e:	02f9a823          	sw	a5,48(s3)
  release(&np->lock);
    80002462:	854e                	mv	a0,s3
    80002464:	fffff097          	auipc	ra,0xfffff
    80002468:	a70080e7          	jalr	-1424(ra) # 80000ed4 <release>
}
    8000246c:	8526                	mv	a0,s1
    8000246e:	70a2                	ld	ra,40(sp)
    80002470:	7402                	ld	s0,32(sp)
    80002472:	64e2                	ld	s1,24(sp)
    80002474:	6942                	ld	s2,16(sp)
    80002476:	69a2                	ld	s3,8(sp)
    80002478:	6a02                	ld	s4,0(sp)
    8000247a:	6145                	addi	sp,sp,48
    8000247c:	8082                	ret
    return -1;
    8000247e:	54fd                	li	s1,-1
    80002480:	b7f5                	j	8000246c <fork+0x104>

0000000080002482 <reparent>:
{
    80002482:	7179                	addi	sp,sp,-48
    80002484:	f406                	sd	ra,40(sp)
    80002486:	f022                	sd	s0,32(sp)
    80002488:	ec26                	sd	s1,24(sp)
    8000248a:	e84a                	sd	s2,16(sp)
    8000248c:	e44e                	sd	s3,8(sp)
    8000248e:	e052                	sd	s4,0(sp)
    80002490:	1800                	addi	s0,sp,48
    80002492:	892a                	mv	s2,a0
  for(pp = proc; pp < &proc[NPROC]; pp++){
    80002494:	00014497          	auipc	s1,0x14
    80002498:	a0448493          	addi	s1,s1,-1532 # 80015e98 <proc>
      pp->parent = initproc;
    8000249c:	0002ca17          	auipc	s4,0x2c
    800024a0:	be4a0a13          	addi	s4,s4,-1052 # 8002e080 <initproc>
  for(pp = proc; pp < &proc[NPROC]; pp++){
    800024a4:	0001a997          	auipc	s3,0x1a
    800024a8:	bf498993          	addi	s3,s3,-1036 # 8001c098 <tickslock>
    800024ac:	a029                	j	800024b6 <reparent+0x34>
    800024ae:	18848493          	addi	s1,s1,392
    800024b2:	03348363          	beq	s1,s3,800024d8 <reparent+0x56>
    if(pp->parent == p){
    800024b6:	7c9c                	ld	a5,56(s1)
    800024b8:	ff279be3          	bne	a5,s2,800024ae <reparent+0x2c>
      acquire(&pp->lock);
    800024bc:	8526                	mv	a0,s1
    800024be:	ffffe097          	auipc	ra,0xffffe
    800024c2:	7ca080e7          	jalr	1994(ra) # 80000c88 <acquire>
      pp->parent = initproc;
    800024c6:	000a3783          	ld	a5,0(s4)
    800024ca:	fc9c                	sd	a5,56(s1)
      release(&pp->lock);
    800024cc:	8526                	mv	a0,s1
    800024ce:	fffff097          	auipc	ra,0xfffff
    800024d2:	a06080e7          	jalr	-1530(ra) # 80000ed4 <release>
    800024d6:	bfe1                	j	800024ae <reparent+0x2c>
}
    800024d8:	70a2                	ld	ra,40(sp)
    800024da:	7402                	ld	s0,32(sp)
    800024dc:	64e2                	ld	s1,24(sp)
    800024de:	6942                	ld	s2,16(sp)
    800024e0:	69a2                	ld	s3,8(sp)
    800024e2:	6a02                	ld	s4,0(sp)
    800024e4:	6145                	addi	sp,sp,48
    800024e6:	8082                	ret

00000000800024e8 <scheduler>:
{
    800024e8:	715d                	addi	sp,sp,-80
    800024ea:	e486                	sd	ra,72(sp)
    800024ec:	e0a2                	sd	s0,64(sp)
    800024ee:	fc26                	sd	s1,56(sp)
    800024f0:	f84a                	sd	s2,48(sp)
    800024f2:	f44e                	sd	s3,40(sp)
    800024f4:	f052                	sd	s4,32(sp)
    800024f6:	ec56                	sd	s5,24(sp)
    800024f8:	e85a                	sd	s6,16(sp)
    800024fa:	e45e                	sd	s7,8(sp)
    800024fc:	e062                	sd	s8,0(sp)
    800024fe:	0880                	addi	s0,sp,80
    80002500:	8792                	mv	a5,tp
  int id = r_tp();
    80002502:	2781                	sext.w	a5,a5
  c->proc = 0;
    80002504:	00779b93          	slli	s7,a5,0x7
    80002508:	00013717          	auipc	a4,0x13
    8000250c:	4e070713          	addi	a4,a4,1248 # 800159e8 <prio>
    80002510:	975e                	add	a4,a4,s7
    80002512:	0a073823          	sd	zero,176(a4)
        swtch(&c->scheduler, &p->context);
    80002516:	00013717          	auipc	a4,0x13
    8000251a:	58a70713          	addi	a4,a4,1418 # 80015aa0 <cpus+0x8>
    8000251e:	9bba                	add	s7,s7,a4
        p->state = RUNNING;
    80002520:	4c0d                	li	s8,3
        c->proc = p;
    80002522:	079e                	slli	a5,a5,0x7
    80002524:	00013917          	auipc	s2,0x13
    80002528:	4c490913          	addi	s2,s2,1220 # 800159e8 <prio>
    8000252c:	993e                	add	s2,s2,a5
    for(p = proc; p < &proc[NPROC]; p++) {
    8000252e:	0001aa17          	auipc	s4,0x1a
    80002532:	b6aa0a13          	addi	s4,s4,-1174 # 8001c098 <tickslock>
    80002536:	a0b9                	j	80002584 <scheduler+0x9c>
        p->state = RUNNING;
    80002538:	0384a823          	sw	s8,48(s1)
        c->proc = p;
    8000253c:	0a993823          	sd	s1,176(s2)
        swtch(&c->scheduler, &p->context);
    80002540:	07848593          	addi	a1,s1,120
    80002544:	855e                	mv	a0,s7
    80002546:	00000097          	auipc	ra,0x0
    8000254a:	6d8080e7          	jalr	1752(ra) # 80002c1e <swtch>
        c->proc = 0;
    8000254e:	0a093823          	sd	zero,176(s2)
        found = 1;
    80002552:	8ada                	mv	s5,s6
      c->intena = 0;
    80002554:	12092623          	sw	zero,300(s2)
      release(&p->lock);
    80002558:	8526                	mv	a0,s1
    8000255a:	fffff097          	auipc	ra,0xfffff
    8000255e:	97a080e7          	jalr	-1670(ra) # 80000ed4 <release>
    for(p = proc; p < &proc[NPROC]; p++) {
    80002562:	18848493          	addi	s1,s1,392
    80002566:	01448b63          	beq	s1,s4,8000257c <scheduler+0x94>
      acquire(&p->lock);
    8000256a:	8526                	mv	a0,s1
    8000256c:	ffffe097          	auipc	ra,0xffffe
    80002570:	71c080e7          	jalr	1820(ra) # 80000c88 <acquire>
      if(p->state == RUNNABLE) {
    80002574:	589c                	lw	a5,48(s1)
    80002576:	fd379fe3          	bne	a5,s3,80002554 <scheduler+0x6c>
    8000257a:	bf7d                	j	80002538 <scheduler+0x50>
    if(found == 0){
    8000257c:	000a9463          	bnez	s5,80002584 <scheduler+0x9c>
      asm volatile("wfi");
    80002580:	10500073          	wfi
  asm volatile("csrr %0, sstatus" : "=r" (x) );
    80002584:	100027f3          	csrr	a5,sstatus
  w_sstatus(r_sstatus() | SSTATUS_SIE);
    80002588:	0027e793          	ori	a5,a5,2
  asm volatile("csrw sstatus, %0" : : "r" (x));
    8000258c:	10079073          	csrw	sstatus,a5
  asm volatile("csrr %0, sstatus" : "=r" (x) );
    80002590:	100027f3          	csrr	a5,sstatus
  w_sstatus(r_sstatus() & ~SSTATUS_SIE);
    80002594:	9bf5                	andi	a5,a5,-3
  asm volatile("csrw sstatus, %0" : : "r" (x));
    80002596:	10079073          	csrw	sstatus,a5
    int found = 0;
    8000259a:	4a81                	li	s5,0
    for(p = proc; p < &proc[NPROC]; p++) {
    8000259c:	00014497          	auipc	s1,0x14
    800025a0:	8fc48493          	addi	s1,s1,-1796 # 80015e98 <proc>
      if(p->state == RUNNABLE) {
    800025a4:	4989                	li	s3,2
        found = 1;
    800025a6:	4b05                	li	s6,1
    800025a8:	b7c9                	j	8000256a <scheduler+0x82>

00000000800025aa <sched>:
{
    800025aa:	7179                	addi	sp,sp,-48
    800025ac:	f406                	sd	ra,40(sp)
    800025ae:	f022                	sd	s0,32(sp)
    800025b0:	ec26                	sd	s1,24(sp)
    800025b2:	e84a                	sd	s2,16(sp)
    800025b4:	e44e                	sd	s3,8(sp)
    800025b6:	1800                	addi	s0,sp,48
  struct proc *p = myproc();
    800025b8:	00000097          	auipc	ra,0x0
    800025bc:	9e4080e7          	jalr	-1564(ra) # 80001f9c <myproc>
    800025c0:	84aa                	mv	s1,a0
  if(!holding(&p->lock))
    800025c2:	ffffe097          	auipc	ra,0xffffe
    800025c6:	648080e7          	jalr	1608(ra) # 80000c0a <holding>
    800025ca:	c93d                	beqz	a0,80002640 <sched+0x96>
  asm volatile("mv %0, tp" : "=r" (x) );
    800025cc:	8792                	mv	a5,tp
  if(mycpu()->noff != 1)
    800025ce:	2781                	sext.w	a5,a5
    800025d0:	079e                	slli	a5,a5,0x7
    800025d2:	00013717          	auipc	a4,0x13
    800025d6:	41670713          	addi	a4,a4,1046 # 800159e8 <prio>
    800025da:	97ba                	add	a5,a5,a4
    800025dc:	1287a703          	lw	a4,296(a5)
    800025e0:	4785                	li	a5,1
    800025e2:	06f71763          	bne	a4,a5,80002650 <sched+0xa6>
  if(p->state == RUNNING)
    800025e6:	5898                	lw	a4,48(s1)
    800025e8:	478d                	li	a5,3
    800025ea:	06f70b63          	beq	a4,a5,80002660 <sched+0xb6>
  asm volatile("csrr %0, sstatus" : "=r" (x) );
    800025ee:	100027f3          	csrr	a5,sstatus
  return (x & SSTATUS_SIE) != 0;
    800025f2:	8b89                	andi	a5,a5,2
  if(intr_get())
    800025f4:	efb5                	bnez	a5,80002670 <sched+0xc6>
  asm volatile("mv %0, tp" : "=r" (x) );
    800025f6:	8792                	mv	a5,tp
  intena = mycpu()->intena;
    800025f8:	00013917          	auipc	s2,0x13
    800025fc:	3f090913          	addi	s2,s2,1008 # 800159e8 <prio>
    80002600:	2781                	sext.w	a5,a5
    80002602:	079e                	slli	a5,a5,0x7
    80002604:	97ca                	add	a5,a5,s2
    80002606:	12c7a983          	lw	s3,300(a5)
    8000260a:	8792                	mv	a5,tp
  swtch(&p->context, &mycpu()->scheduler);
    8000260c:	2781                	sext.w	a5,a5
    8000260e:	079e                	slli	a5,a5,0x7
    80002610:	00013597          	auipc	a1,0x13
    80002614:	49058593          	addi	a1,a1,1168 # 80015aa0 <cpus+0x8>
    80002618:	95be                	add	a1,a1,a5
    8000261a:	07848513          	addi	a0,s1,120
    8000261e:	00000097          	auipc	ra,0x0
    80002622:	600080e7          	jalr	1536(ra) # 80002c1e <swtch>
    80002626:	8792                	mv	a5,tp
  mycpu()->intena = intena;
    80002628:	2781                	sext.w	a5,a5
    8000262a:	079e                	slli	a5,a5,0x7
    8000262c:	97ca                	add	a5,a5,s2
    8000262e:	1337a623          	sw	s3,300(a5)
}
    80002632:	70a2                	ld	ra,40(sp)
    80002634:	7402                	ld	s0,32(sp)
    80002636:	64e2                	ld	s1,24(sp)
    80002638:	6942                	ld	s2,16(sp)
    8000263a:	69a2                	ld	s3,8(sp)
    8000263c:	6145                	addi	sp,sp,48
    8000263e:	8082                	ret
    panic("sched p->lock");
    80002640:	00006517          	auipc	a0,0x6
    80002644:	f8050513          	addi	a0,a0,-128 # 800085c0 <userret+0x530>
    80002648:	ffffe097          	auipc	ra,0xffffe
    8000264c:	10e080e7          	jalr	270(ra) # 80000756 <panic>
    panic("sched locks");
    80002650:	00006517          	auipc	a0,0x6
    80002654:	f8050513          	addi	a0,a0,-128 # 800085d0 <userret+0x540>
    80002658:	ffffe097          	auipc	ra,0xffffe
    8000265c:	0fe080e7          	jalr	254(ra) # 80000756 <panic>
    panic("sched running");
    80002660:	00006517          	auipc	a0,0x6
    80002664:	f8050513          	addi	a0,a0,-128 # 800085e0 <userret+0x550>
    80002668:	ffffe097          	auipc	ra,0xffffe
    8000266c:	0ee080e7          	jalr	238(ra) # 80000756 <panic>
    panic("sched interruptible");
    80002670:	00006517          	auipc	a0,0x6
    80002674:	f8050513          	addi	a0,a0,-128 # 800085f0 <userret+0x560>
    80002678:	ffffe097          	auipc	ra,0xffffe
    8000267c:	0de080e7          	jalr	222(ra) # 80000756 <panic>

0000000080002680 <exit>:
{
    80002680:	7179                	addi	sp,sp,-48
    80002682:	f406                	sd	ra,40(sp)
    80002684:	f022                	sd	s0,32(sp)
    80002686:	ec26                	sd	s1,24(sp)
    80002688:	e84a                	sd	s2,16(sp)
    8000268a:	e44e                	sd	s3,8(sp)
    8000268c:	e052                	sd	s4,0(sp)
    8000268e:	1800                	addi	s0,sp,48
    80002690:	8a2a                	mv	s4,a0
  struct proc *p = myproc();
    80002692:	00000097          	auipc	ra,0x0
    80002696:	90a080e7          	jalr	-1782(ra) # 80001f9c <myproc>
    8000269a:	89aa                	mv	s3,a0
  if(p == initproc)
    8000269c:	0002c797          	auipc	a5,0x2c
    800026a0:	9e47b783          	ld	a5,-1564(a5) # 8002e080 <initproc>
    800026a4:	0e850493          	addi	s1,a0,232
    800026a8:	16850913          	addi	s2,a0,360
    800026ac:	02a79363          	bne	a5,a0,800026d2 <exit+0x52>
    panic("init exiting");
    800026b0:	00006517          	auipc	a0,0x6
    800026b4:	f5850513          	addi	a0,a0,-168 # 80008608 <userret+0x578>
    800026b8:	ffffe097          	auipc	ra,0xffffe
    800026bc:	09e080e7          	jalr	158(ra) # 80000756 <panic>
      fileclose(f);
    800026c0:	00002097          	auipc	ra,0x2
    800026c4:	62e080e7          	jalr	1582(ra) # 80004cee <fileclose>
      p->ofile[fd] = 0;
    800026c8:	0004b023          	sd	zero,0(s1)
  for(int fd = 0; fd < NOFILE; fd++){
    800026cc:	04a1                	addi	s1,s1,8
    800026ce:	01248563          	beq	s1,s2,800026d8 <exit+0x58>
    if(p->ofile[fd]){
    800026d2:	6088                	ld	a0,0(s1)
    800026d4:	f575                	bnez	a0,800026c0 <exit+0x40>
    800026d6:	bfdd                	j	800026cc <exit+0x4c>
  begin_op(ROOTDEV);
    800026d8:	4501                	li	a0,0
    800026da:	00002097          	auipc	ra,0x2
    800026de:	08a080e7          	jalr	138(ra) # 80004764 <begin_op>
  iput(p->cwd);
    800026e2:	1689b503          	ld	a0,360(s3)
    800026e6:	00001097          	auipc	ra,0x1
    800026ea:	7bc080e7          	jalr	1980(ra) # 80003ea2 <iput>
  end_op(ROOTDEV);
    800026ee:	4501                	li	a0,0
    800026f0:	00002097          	auipc	ra,0x2
    800026f4:	120080e7          	jalr	288(ra) # 80004810 <end_op>
  p->cwd = 0;
    800026f8:	1609b423          	sd	zero,360(s3)
  acquire(&initproc->lock);
    800026fc:	0002c497          	auipc	s1,0x2c
    80002700:	98448493          	addi	s1,s1,-1660 # 8002e080 <initproc>
    80002704:	6088                	ld	a0,0(s1)
    80002706:	ffffe097          	auipc	ra,0xffffe
    8000270a:	582080e7          	jalr	1410(ra) # 80000c88 <acquire>
  wakeup1(initproc);
    8000270e:	6088                	ld	a0,0(s1)
    80002710:	fffff097          	auipc	ra,0xfffff
    80002714:	65a080e7          	jalr	1626(ra) # 80001d6a <wakeup1>
  release(&initproc->lock);
    80002718:	6088                	ld	a0,0(s1)
    8000271a:	ffffe097          	auipc	ra,0xffffe
    8000271e:	7ba080e7          	jalr	1978(ra) # 80000ed4 <release>
  acquire(&p->lock);
    80002722:	854e                	mv	a0,s3
    80002724:	ffffe097          	auipc	ra,0xffffe
    80002728:	564080e7          	jalr	1380(ra) # 80000c88 <acquire>
  struct proc *original_parent = p->parent;
    8000272c:	0389b483          	ld	s1,56(s3)
  release(&p->lock);
    80002730:	854e                	mv	a0,s3
    80002732:	ffffe097          	auipc	ra,0xffffe
    80002736:	7a2080e7          	jalr	1954(ra) # 80000ed4 <release>
  acquire(&original_parent->lock);
    8000273a:	8526                	mv	a0,s1
    8000273c:	ffffe097          	auipc	ra,0xffffe
    80002740:	54c080e7          	jalr	1356(ra) # 80000c88 <acquire>
  acquire(&p->lock);
    80002744:	854e                	mv	a0,s3
    80002746:	ffffe097          	auipc	ra,0xffffe
    8000274a:	542080e7          	jalr	1346(ra) # 80000c88 <acquire>
  reparent(p);
    8000274e:	854e                	mv	a0,s3
    80002750:	00000097          	auipc	ra,0x0
    80002754:	d32080e7          	jalr	-718(ra) # 80002482 <reparent>
  wakeup1(original_parent);
    80002758:	8526                	mv	a0,s1
    8000275a:	fffff097          	auipc	ra,0xfffff
    8000275e:	610080e7          	jalr	1552(ra) # 80001d6a <wakeup1>
  p->xstate = status;
    80002762:	0549a623          	sw	s4,76(s3)
  p->state = ZOMBIE;
    80002766:	4791                	li	a5,4
    80002768:	02f9a823          	sw	a5,48(s3)
  release(&original_parent->lock);
    8000276c:	8526                	mv	a0,s1
    8000276e:	ffffe097          	auipc	ra,0xffffe
    80002772:	766080e7          	jalr	1894(ra) # 80000ed4 <release>
  sched();
    80002776:	00000097          	auipc	ra,0x0
    8000277a:	e34080e7          	jalr	-460(ra) # 800025aa <sched>
  panic("zombie exit");
    8000277e:	00006517          	auipc	a0,0x6
    80002782:	e9a50513          	addi	a0,a0,-358 # 80008618 <userret+0x588>
    80002786:	ffffe097          	auipc	ra,0xffffe
    8000278a:	fd0080e7          	jalr	-48(ra) # 80000756 <panic>

000000008000278e <yield>:
{
    8000278e:	1101                	addi	sp,sp,-32
    80002790:	ec06                	sd	ra,24(sp)
    80002792:	e822                	sd	s0,16(sp)
    80002794:	e426                	sd	s1,8(sp)
    80002796:	1000                	addi	s0,sp,32
  struct proc *p = myproc();
    80002798:	00000097          	auipc	ra,0x0
    8000279c:	804080e7          	jalr	-2044(ra) # 80001f9c <myproc>
    800027a0:	84aa                	mv	s1,a0
  acquire(&p->lock);
    800027a2:	ffffe097          	auipc	ra,0xffffe
    800027a6:	4e6080e7          	jalr	1254(ra) # 80000c88 <acquire>
  p->state = RUNNABLE;
    800027aa:	4789                	li	a5,2
    800027ac:	d89c                	sw	a5,48(s1)
  sched();
    800027ae:	00000097          	auipc	ra,0x0
    800027b2:	dfc080e7          	jalr	-516(ra) # 800025aa <sched>
  release(&p->lock);
    800027b6:	8526                	mv	a0,s1
    800027b8:	ffffe097          	auipc	ra,0xffffe
    800027bc:	71c080e7          	jalr	1820(ra) # 80000ed4 <release>
}
    800027c0:	60e2                	ld	ra,24(sp)
    800027c2:	6442                	ld	s0,16(sp)
    800027c4:	64a2                	ld	s1,8(sp)
    800027c6:	6105                	addi	sp,sp,32
    800027c8:	8082                	ret

00000000800027ca <sleep>:
{
    800027ca:	7179                	addi	sp,sp,-48
    800027cc:	f406                	sd	ra,40(sp)
    800027ce:	f022                	sd	s0,32(sp)
    800027d0:	ec26                	sd	s1,24(sp)
    800027d2:	e84a                	sd	s2,16(sp)
    800027d4:	e44e                	sd	s3,8(sp)
    800027d6:	1800                	addi	s0,sp,48
    800027d8:	89aa                	mv	s3,a0
    800027da:	892e                	mv	s2,a1
  struct proc *p = myproc();
    800027dc:	fffff097          	auipc	ra,0xfffff
    800027e0:	7c0080e7          	jalr	1984(ra) # 80001f9c <myproc>
    800027e4:	84aa                	mv	s1,a0
  if(lk != &p->lock){  //DOC: sleeplock0
    800027e6:	05250663          	beq	a0,s2,80002832 <sleep+0x68>
    acquire(&p->lock);  //DOC: sleeplock1
    800027ea:	ffffe097          	auipc	ra,0xffffe
    800027ee:	49e080e7          	jalr	1182(ra) # 80000c88 <acquire>
    release(lk);
    800027f2:	854a                	mv	a0,s2
    800027f4:	ffffe097          	auipc	ra,0xffffe
    800027f8:	6e0080e7          	jalr	1760(ra) # 80000ed4 <release>
  p->chan = chan;
    800027fc:	0534b023          	sd	s3,64(s1)
  p->state = SLEEPING;
    80002800:	4785                	li	a5,1
    80002802:	d89c                	sw	a5,48(s1)
  sched();
    80002804:	00000097          	auipc	ra,0x0
    80002808:	da6080e7          	jalr	-602(ra) # 800025aa <sched>
  p->chan = 0;
    8000280c:	0404b023          	sd	zero,64(s1)
    release(&p->lock);
    80002810:	8526                	mv	a0,s1
    80002812:	ffffe097          	auipc	ra,0xffffe
    80002816:	6c2080e7          	jalr	1730(ra) # 80000ed4 <release>
    acquire(lk);
    8000281a:	854a                	mv	a0,s2
    8000281c:	ffffe097          	auipc	ra,0xffffe
    80002820:	46c080e7          	jalr	1132(ra) # 80000c88 <acquire>
}
    80002824:	70a2                	ld	ra,40(sp)
    80002826:	7402                	ld	s0,32(sp)
    80002828:	64e2                	ld	s1,24(sp)
    8000282a:	6942                	ld	s2,16(sp)
    8000282c:	69a2                	ld	s3,8(sp)
    8000282e:	6145                	addi	sp,sp,48
    80002830:	8082                	ret
  p->chan = chan;
    80002832:	05353023          	sd	s3,64(a0)
  p->state = SLEEPING;
    80002836:	4785                	li	a5,1
    80002838:	d91c                	sw	a5,48(a0)
  sched();
    8000283a:	00000097          	auipc	ra,0x0
    8000283e:	d70080e7          	jalr	-656(ra) # 800025aa <sched>
  p->chan = 0;
    80002842:	0404b023          	sd	zero,64(s1)
  if(lk != &p->lock){
    80002846:	bff9                	j	80002824 <sleep+0x5a>

0000000080002848 <wait>:
{
    80002848:	715d                	addi	sp,sp,-80
    8000284a:	e486                	sd	ra,72(sp)
    8000284c:	e0a2                	sd	s0,64(sp)
    8000284e:	fc26                	sd	s1,56(sp)
    80002850:	f84a                	sd	s2,48(sp)
    80002852:	f44e                	sd	s3,40(sp)
    80002854:	f052                	sd	s4,32(sp)
    80002856:	ec56                	sd	s5,24(sp)
    80002858:	e85a                	sd	s6,16(sp)
    8000285a:	e45e                	sd	s7,8(sp)
    8000285c:	e062                	sd	s8,0(sp)
    8000285e:	0880                	addi	s0,sp,80
    80002860:	8b2a                	mv	s6,a0
  struct proc *p = myproc();
    80002862:	fffff097          	auipc	ra,0xfffff
    80002866:	73a080e7          	jalr	1850(ra) # 80001f9c <myproc>
    8000286a:	892a                	mv	s2,a0
  acquire(&p->lock);
    8000286c:	8c2a                	mv	s8,a0
    8000286e:	ffffe097          	auipc	ra,0xffffe
    80002872:	41a080e7          	jalr	1050(ra) # 80000c88 <acquire>
    havekids = 0;
    80002876:	4b81                	li	s7,0
        if(np->state == ZOMBIE){
    80002878:	4a11                	li	s4,4
    for(np = proc; np < &proc[NPROC]; np++){
    8000287a:	0001a997          	auipc	s3,0x1a
    8000287e:	81e98993          	addi	s3,s3,-2018 # 8001c098 <tickslock>
        havekids = 1;
    80002882:	4a85                	li	s5,1
    havekids = 0;
    80002884:	875e                	mv	a4,s7
    for(np = proc; np < &proc[NPROC]; np++){
    80002886:	00013497          	auipc	s1,0x13
    8000288a:	61248493          	addi	s1,s1,1554 # 80015e98 <proc>
    8000288e:	a08d                	j	800028f0 <wait+0xa8>
          pid = np->pid;
    80002890:	0504a983          	lw	s3,80(s1)
          if(addr != 0 && copyout(p->pagetable, addr, (char *)&np->xstate,
    80002894:	000b0e63          	beqz	s6,800028b0 <wait+0x68>
    80002898:	4691                	li	a3,4
    8000289a:	04c48613          	addi	a2,s1,76
    8000289e:	85da                	mv	a1,s6
    800028a0:	06893503          	ld	a0,104(s2)
    800028a4:	fffff097          	auipc	ra,0xfffff
    800028a8:	2fa080e7          	jalr	762(ra) # 80001b9e <copyout>
    800028ac:	02054263          	bltz	a0,800028d0 <wait+0x88>
          freeproc(np);
    800028b0:	8526                	mv	a0,s1
    800028b2:	00000097          	auipc	ra,0x0
    800028b6:	90a080e7          	jalr	-1782(ra) # 800021bc <freeproc>
          release(&np->lock);
    800028ba:	8526                	mv	a0,s1
    800028bc:	ffffe097          	auipc	ra,0xffffe
    800028c0:	618080e7          	jalr	1560(ra) # 80000ed4 <release>
          release(&p->lock);
    800028c4:	854a                	mv	a0,s2
    800028c6:	ffffe097          	auipc	ra,0xffffe
    800028ca:	60e080e7          	jalr	1550(ra) # 80000ed4 <release>
          return pid;
    800028ce:	a8a9                	j	80002928 <wait+0xe0>
            release(&np->lock);
    800028d0:	8526                	mv	a0,s1
    800028d2:	ffffe097          	auipc	ra,0xffffe
    800028d6:	602080e7          	jalr	1538(ra) # 80000ed4 <release>
            release(&p->lock);
    800028da:	854a                	mv	a0,s2
    800028dc:	ffffe097          	auipc	ra,0xffffe
    800028e0:	5f8080e7          	jalr	1528(ra) # 80000ed4 <release>
            return -1;
    800028e4:	59fd                	li	s3,-1
    800028e6:	a089                	j	80002928 <wait+0xe0>
    for(np = proc; np < &proc[NPROC]; np++){
    800028e8:	18848493          	addi	s1,s1,392
    800028ec:	03348463          	beq	s1,s3,80002914 <wait+0xcc>
      if(np->parent == p){
    800028f0:	7c9c                	ld	a5,56(s1)
    800028f2:	ff279be3          	bne	a5,s2,800028e8 <wait+0xa0>
        acquire(&np->lock);
    800028f6:	8526                	mv	a0,s1
    800028f8:	ffffe097          	auipc	ra,0xffffe
    800028fc:	390080e7          	jalr	912(ra) # 80000c88 <acquire>
        if(np->state == ZOMBIE){
    80002900:	589c                	lw	a5,48(s1)
    80002902:	f94787e3          	beq	a5,s4,80002890 <wait+0x48>
        release(&np->lock);
    80002906:	8526                	mv	a0,s1
    80002908:	ffffe097          	auipc	ra,0xffffe
    8000290c:	5cc080e7          	jalr	1484(ra) # 80000ed4 <release>
        havekids = 1;
    80002910:	8756                	mv	a4,s5
    80002912:	bfd9                	j	800028e8 <wait+0xa0>
    if(!havekids || p->killed){
    80002914:	c701                	beqz	a4,8000291c <wait+0xd4>
    80002916:	04892783          	lw	a5,72(s2)
    8000291a:	c785                	beqz	a5,80002942 <wait+0xfa>
      release(&p->lock);
    8000291c:	854a                	mv	a0,s2
    8000291e:	ffffe097          	auipc	ra,0xffffe
    80002922:	5b6080e7          	jalr	1462(ra) # 80000ed4 <release>
      return -1;
    80002926:	59fd                	li	s3,-1
}
    80002928:	854e                	mv	a0,s3
    8000292a:	60a6                	ld	ra,72(sp)
    8000292c:	6406                	ld	s0,64(sp)
    8000292e:	74e2                	ld	s1,56(sp)
    80002930:	7942                	ld	s2,48(sp)
    80002932:	79a2                	ld	s3,40(sp)
    80002934:	7a02                	ld	s4,32(sp)
    80002936:	6ae2                	ld	s5,24(sp)
    80002938:	6b42                	ld	s6,16(sp)
    8000293a:	6ba2                	ld	s7,8(sp)
    8000293c:	6c02                	ld	s8,0(sp)
    8000293e:	6161                	addi	sp,sp,80
    80002940:	8082                	ret
    sleep(p, &p->lock);  //DOC: wait-sleep
    80002942:	85e2                	mv	a1,s8
    80002944:	854a                	mv	a0,s2
    80002946:	00000097          	auipc	ra,0x0
    8000294a:	e84080e7          	jalr	-380(ra) # 800027ca <sleep>
    havekids = 0;
    8000294e:	bf1d                	j	80002884 <wait+0x3c>

0000000080002950 <wakeup>:
{
    80002950:	7139                	addi	sp,sp,-64
    80002952:	fc06                	sd	ra,56(sp)
    80002954:	f822                	sd	s0,48(sp)
    80002956:	f426                	sd	s1,40(sp)
    80002958:	f04a                	sd	s2,32(sp)
    8000295a:	ec4e                	sd	s3,24(sp)
    8000295c:	e852                	sd	s4,16(sp)
    8000295e:	e456                	sd	s5,8(sp)
    80002960:	0080                	addi	s0,sp,64
    80002962:	8a2a                	mv	s4,a0
  for(p = proc; p < &proc[NPROC]; p++) {
    80002964:	00013497          	auipc	s1,0x13
    80002968:	53448493          	addi	s1,s1,1332 # 80015e98 <proc>
    if(p->state == SLEEPING && p->chan == chan) {
    8000296c:	4985                	li	s3,1
      p->state = RUNNABLE;
    8000296e:	4a89                	li	s5,2
  for(p = proc; p < &proc[NPROC]; p++) {
    80002970:	00019917          	auipc	s2,0x19
    80002974:	72890913          	addi	s2,s2,1832 # 8001c098 <tickslock>
    80002978:	a821                	j	80002990 <wakeup+0x40>
      p->state = RUNNABLE;
    8000297a:	0354a823          	sw	s5,48(s1)
    release(&p->lock);
    8000297e:	8526                	mv	a0,s1
    80002980:	ffffe097          	auipc	ra,0xffffe
    80002984:	554080e7          	jalr	1364(ra) # 80000ed4 <release>
  for(p = proc; p < &proc[NPROC]; p++) {
    80002988:	18848493          	addi	s1,s1,392
    8000298c:	01248e63          	beq	s1,s2,800029a8 <wakeup+0x58>
    acquire(&p->lock);
    80002990:	8526                	mv	a0,s1
    80002992:	ffffe097          	auipc	ra,0xffffe
    80002996:	2f6080e7          	jalr	758(ra) # 80000c88 <acquire>
    if(p->state == SLEEPING && p->chan == chan) {
    8000299a:	589c                	lw	a5,48(s1)
    8000299c:	ff3791e3          	bne	a5,s3,8000297e <wakeup+0x2e>
    800029a0:	60bc                	ld	a5,64(s1)
    800029a2:	fd479ee3          	bne	a5,s4,8000297e <wakeup+0x2e>
    800029a6:	bfd1                	j	8000297a <wakeup+0x2a>
}
    800029a8:	70e2                	ld	ra,56(sp)
    800029aa:	7442                	ld	s0,48(sp)
    800029ac:	74a2                	ld	s1,40(sp)
    800029ae:	7902                	ld	s2,32(sp)
    800029b0:	69e2                	ld	s3,24(sp)
    800029b2:	6a42                	ld	s4,16(sp)
    800029b4:	6aa2                	ld	s5,8(sp)
    800029b6:	6121                	addi	sp,sp,64
    800029b8:	8082                	ret

00000000800029ba <kill>:
// Kill the process with the given pid.
// The victim won't exit until it tries to return
// to user space (see usertrap() in trap.c).
int
kill(int pid)
{
    800029ba:	7179                	addi	sp,sp,-48
    800029bc:	f406                	sd	ra,40(sp)
    800029be:	f022                	sd	s0,32(sp)
    800029c0:	ec26                	sd	s1,24(sp)
    800029c2:	e84a                	sd	s2,16(sp)
    800029c4:	e44e                	sd	s3,8(sp)
    800029c6:	1800                	addi	s0,sp,48
    800029c8:	892a                	mv	s2,a0
  struct proc *p;

  for(p = proc; p < &proc[NPROC]; p++){
    800029ca:	00013497          	auipc	s1,0x13
    800029ce:	4ce48493          	addi	s1,s1,1230 # 80015e98 <proc>
    800029d2:	00019997          	auipc	s3,0x19
    800029d6:	6c698993          	addi	s3,s3,1734 # 8001c098 <tickslock>
    acquire(&p->lock);
    800029da:	8526                	mv	a0,s1
    800029dc:	ffffe097          	auipc	ra,0xffffe
    800029e0:	2ac080e7          	jalr	684(ra) # 80000c88 <acquire>
    if(p->pid == pid){
    800029e4:	48bc                	lw	a5,80(s1)
    800029e6:	01278d63          	beq	a5,s2,80002a00 <kill+0x46>
        p->state = RUNNABLE;
      }
      release(&p->lock);
      return 0;
    }
    release(&p->lock);
    800029ea:	8526                	mv	a0,s1
    800029ec:	ffffe097          	auipc	ra,0xffffe
    800029f0:	4e8080e7          	jalr	1256(ra) # 80000ed4 <release>
  for(p = proc; p < &proc[NPROC]; p++){
    800029f4:	18848493          	addi	s1,s1,392
    800029f8:	ff3491e3          	bne	s1,s3,800029da <kill+0x20>
  }
  return -1;
    800029fc:	557d                	li	a0,-1
    800029fe:	a829                	j	80002a18 <kill+0x5e>
      p->killed = 1;
    80002a00:	4785                	li	a5,1
    80002a02:	c4bc                	sw	a5,72(s1)
      if(p->state == SLEEPING){
    80002a04:	5898                	lw	a4,48(s1)
    80002a06:	4785                	li	a5,1
    80002a08:	00f70f63          	beq	a4,a5,80002a26 <kill+0x6c>
      release(&p->lock);
    80002a0c:	8526                	mv	a0,s1
    80002a0e:	ffffe097          	auipc	ra,0xffffe
    80002a12:	4c6080e7          	jalr	1222(ra) # 80000ed4 <release>
      return 0;
    80002a16:	4501                	li	a0,0
}
    80002a18:	70a2                	ld	ra,40(sp)
    80002a1a:	7402                	ld	s0,32(sp)
    80002a1c:	64e2                	ld	s1,24(sp)
    80002a1e:	6942                	ld	s2,16(sp)
    80002a20:	69a2                	ld	s3,8(sp)
    80002a22:	6145                	addi	sp,sp,48
    80002a24:	8082                	ret
        p->state = RUNNABLE;
    80002a26:	4789                	li	a5,2
    80002a28:	d89c                	sw	a5,48(s1)
    80002a2a:	b7cd                	j	80002a0c <kill+0x52>

0000000080002a2c <either_copyout>:
// Copy to either a user address, or kernel address,
// depending on usr_dst.
// Returns 0 on success, -1 on error.
int
either_copyout(int user_dst, uint64 dst, void *src, uint64 len)
{
    80002a2c:	7179                	addi	sp,sp,-48
    80002a2e:	f406                	sd	ra,40(sp)
    80002a30:	f022                	sd	s0,32(sp)
    80002a32:	ec26                	sd	s1,24(sp)
    80002a34:	e84a                	sd	s2,16(sp)
    80002a36:	e44e                	sd	s3,8(sp)
    80002a38:	e052                	sd	s4,0(sp)
    80002a3a:	1800                	addi	s0,sp,48
    80002a3c:	84aa                	mv	s1,a0
    80002a3e:	892e                	mv	s2,a1
    80002a40:	89b2                	mv	s3,a2
    80002a42:	8a36                	mv	s4,a3
  struct proc *p = myproc();
    80002a44:	fffff097          	auipc	ra,0xfffff
    80002a48:	558080e7          	jalr	1368(ra) # 80001f9c <myproc>
  if(user_dst){
    80002a4c:	c08d                	beqz	s1,80002a6e <either_copyout+0x42>
    return copyout(p->pagetable, dst, src, len);
    80002a4e:	86d2                	mv	a3,s4
    80002a50:	864e                	mv	a2,s3
    80002a52:	85ca                	mv	a1,s2
    80002a54:	7528                	ld	a0,104(a0)
    80002a56:	fffff097          	auipc	ra,0xfffff
    80002a5a:	148080e7          	jalr	328(ra) # 80001b9e <copyout>
  } else {
    memmove((char *)dst, src, len);
    return 0;
  }
}
    80002a5e:	70a2                	ld	ra,40(sp)
    80002a60:	7402                	ld	s0,32(sp)
    80002a62:	64e2                	ld	s1,24(sp)
    80002a64:	6942                	ld	s2,16(sp)
    80002a66:	69a2                	ld	s3,8(sp)
    80002a68:	6a02                	ld	s4,0(sp)
    80002a6a:	6145                	addi	sp,sp,48
    80002a6c:	8082                	ret
    memmove((char *)dst, src, len);
    80002a6e:	000a061b          	sext.w	a2,s4
    80002a72:	85ce                	mv	a1,s3
    80002a74:	854a                	mv	a0,s2
    80002a76:	ffffe097          	auipc	ra,0xffffe
    80002a7a:	6be080e7          	jalr	1726(ra) # 80001134 <memmove>
    return 0;
    80002a7e:	8526                	mv	a0,s1
    80002a80:	bff9                	j	80002a5e <either_copyout+0x32>

0000000080002a82 <either_copyin>:
// Copy from either a user address, or kernel address,
// depending on usr_src.
// Returns 0 on success, -1 on error.
int
either_copyin(void *dst, int user_src, uint64 src, uint64 len)
{
    80002a82:	7179                	addi	sp,sp,-48
    80002a84:	f406                	sd	ra,40(sp)
    80002a86:	f022                	sd	s0,32(sp)
    80002a88:	ec26                	sd	s1,24(sp)
    80002a8a:	e84a                	sd	s2,16(sp)
    80002a8c:	e44e                	sd	s3,8(sp)
    80002a8e:	e052                	sd	s4,0(sp)
    80002a90:	1800                	addi	s0,sp,48
    80002a92:	892a                	mv	s2,a0
    80002a94:	84ae                	mv	s1,a1
    80002a96:	89b2                	mv	s3,a2
    80002a98:	8a36                	mv	s4,a3
  struct proc *p = myproc();
    80002a9a:	fffff097          	auipc	ra,0xfffff
    80002a9e:	502080e7          	jalr	1282(ra) # 80001f9c <myproc>
  if(user_src){
    80002aa2:	c08d                	beqz	s1,80002ac4 <either_copyin+0x42>
    return copyin(p->pagetable, dst, src, len);
    80002aa4:	86d2                	mv	a3,s4
    80002aa6:	864e                	mv	a2,s3
    80002aa8:	85ca                	mv	a1,s2
    80002aaa:	7528                	ld	a0,104(a0)
    80002aac:	fffff097          	auipc	ra,0xfffff
    80002ab0:	17e080e7          	jalr	382(ra) # 80001c2a <copyin>
  } else {
    memmove(dst, (char*)src, len);
    return 0;
  }
}
    80002ab4:	70a2                	ld	ra,40(sp)
    80002ab6:	7402                	ld	s0,32(sp)
    80002ab8:	64e2                	ld	s1,24(sp)
    80002aba:	6942                	ld	s2,16(sp)
    80002abc:	69a2                	ld	s3,8(sp)
    80002abe:	6a02                	ld	s4,0(sp)
    80002ac0:	6145                	addi	sp,sp,48
    80002ac2:	8082                	ret
    memmove(dst, (char*)src, len);
    80002ac4:	000a061b          	sext.w	a2,s4
    80002ac8:	85ce                	mv	a1,s3
    80002aca:	854a                	mv	a0,s2
    80002acc:	ffffe097          	auipc	ra,0xffffe
    80002ad0:	668080e7          	jalr	1640(ra) # 80001134 <memmove>
    return 0;
    80002ad4:	8526                	mv	a0,s1
    80002ad6:	bff9                	j	80002ab4 <either_copyin+0x32>

0000000080002ad8 <procdump>:
// Print a process listing to console.  For debugging.
// Runs when user types ^P on console.
// No lock to avoid wedging a stuck machine further.
void
procdump(void)
{
    80002ad8:	715d                	addi	sp,sp,-80
    80002ada:	e486                	sd	ra,72(sp)
    80002adc:	e0a2                	sd	s0,64(sp)
    80002ade:	fc26                	sd	s1,56(sp)
    80002ae0:	f84a                	sd	s2,48(sp)
    80002ae2:	f44e                	sd	s3,40(sp)
    80002ae4:	f052                	sd	s4,32(sp)
    80002ae6:	ec56                	sd	s5,24(sp)
    80002ae8:	e85a                	sd	s6,16(sp)
    80002aea:	e45e                	sd	s7,8(sp)
    80002aec:	e062                	sd	s8,0(sp)
    80002aee:	0880                	addi	s0,sp,80
  [ZOMBIE]    "zombie"
  };
  struct proc *p;
  char *state;

  printf("\nPID\tPPID\tPRIO\tSTATE\tCMD\n");
    80002af0:	00006517          	auipc	a0,0x6
    80002af4:	b4050513          	addi	a0,a0,-1216 # 80008630 <userret+0x5a0>
    80002af8:	ffffe097          	auipc	ra,0xffffe
    80002afc:	e74080e7          	jalr	-396(ra) # 8000096c <printf>
  for(p = proc; p < &proc[NPROC]; p++){
    80002b00:	00013497          	auipc	s1,0x13
    80002b04:	39848493          	addi	s1,s1,920 # 80015e98 <proc>
    if(p->state == UNUSED)
      continue;
    if(p->state >= 0 && p->state < NELEM(states) && states[p->state])
    80002b08:	4b91                	li	s7,4
      state = states[p->state];
    else
      state = "???";
    80002b0a:	00006997          	auipc	s3,0x6
    80002b0e:	b1e98993          	addi	s3,s3,-1250 # 80008628 <userret+0x598>
    printf("%d\t%d\t%d\t%s\t'%s'",
    80002b12:	5b7d                	li	s6,-1
    80002b14:	00006a97          	auipc	s5,0x6
    80002b18:	b3ca8a93          	addi	s5,s5,-1220 # 80008650 <userret+0x5c0>
           p->parent ? p->parent->pid : -1,
           p->priority,
           state,
           p->cmd
           );
    printf("\n");
    80002b1c:	00006a17          	auipc	s4,0x6
    80002b20:	b2ca0a13          	addi	s4,s4,-1236 # 80008648 <userret+0x5b8>
    if(p->state >= 0 && p->state < NELEM(states) && states[p->state])
    80002b24:	00006c17          	auipc	s8,0x6
    80002b28:	41cc0c13          	addi	s8,s8,1052 # 80008f40 <states.1827>
  for(p = proc; p < &proc[NPROC]; p++){
    80002b2c:	00019917          	auipc	s2,0x19
    80002b30:	56c90913          	addi	s2,s2,1388 # 8001c098 <tickslock>
    80002b34:	a03d                	j	80002b62 <procdump+0x8a>
    printf("%d\t%d\t%d\t%s\t'%s'",
    80002b36:	48ac                	lw	a1,80(s1)
           p->parent ? p->parent->pid : -1,
    80002b38:	7c9c                	ld	a5,56(s1)
    printf("%d\t%d\t%d\t%s\t'%s'",
    80002b3a:	865a                	mv	a2,s6
    80002b3c:	c391                	beqz	a5,80002b40 <procdump+0x68>
    80002b3e:	4bb0                	lw	a2,80(a5)
    80002b40:	1804b783          	ld	a5,384(s1)
    80002b44:	48f4                	lw	a3,84(s1)
    80002b46:	8556                	mv	a0,s5
    80002b48:	ffffe097          	auipc	ra,0xffffe
    80002b4c:	e24080e7          	jalr	-476(ra) # 8000096c <printf>
    printf("\n");
    80002b50:	8552                	mv	a0,s4
    80002b52:	ffffe097          	auipc	ra,0xffffe
    80002b56:	e1a080e7          	jalr	-486(ra) # 8000096c <printf>
  for(p = proc; p < &proc[NPROC]; p++){
    80002b5a:	18848493          	addi	s1,s1,392
    80002b5e:	01248f63          	beq	s1,s2,80002b7c <procdump+0xa4>
    if(p->state == UNUSED)
    80002b62:	589c                	lw	a5,48(s1)
    80002b64:	dbfd                	beqz	a5,80002b5a <procdump+0x82>
      state = "???";
    80002b66:	874e                	mv	a4,s3
    if(p->state >= 0 && p->state < NELEM(states) && states[p->state])
    80002b68:	fcfbe7e3          	bltu	s7,a5,80002b36 <procdump+0x5e>
    80002b6c:	1782                	slli	a5,a5,0x20
    80002b6e:	9381                	srli	a5,a5,0x20
    80002b70:	078e                	slli	a5,a5,0x3
    80002b72:	97e2                	add	a5,a5,s8
    80002b74:	6398                	ld	a4,0(a5)
    80002b76:	f361                	bnez	a4,80002b36 <procdump+0x5e>
      state = "???";
    80002b78:	874e                	mv	a4,s3
    80002b7a:	bf75                	j	80002b36 <procdump+0x5e>
  }
}
    80002b7c:	60a6                	ld	ra,72(sp)
    80002b7e:	6406                	ld	s0,64(sp)
    80002b80:	74e2                	ld	s1,56(sp)
    80002b82:	7942                	ld	s2,48(sp)
    80002b84:	79a2                	ld	s3,40(sp)
    80002b86:	7a02                	ld	s4,32(sp)
    80002b88:	6ae2                	ld	s5,24(sp)
    80002b8a:	6b42                	ld	s6,16(sp)
    80002b8c:	6ba2                	ld	s7,8(sp)
    80002b8e:	6c02                	ld	s8,0(sp)
    80002b90:	6161                	addi	sp,sp,80
    80002b92:	8082                	ret

0000000080002b94 <priodump>:

// No lock to avoid wedging a stuck machine further.
void priodump(void){
    80002b94:	715d                	addi	sp,sp,-80
    80002b96:	e486                	sd	ra,72(sp)
    80002b98:	e0a2                	sd	s0,64(sp)
    80002b9a:	fc26                	sd	s1,56(sp)
    80002b9c:	f84a                	sd	s2,48(sp)
    80002b9e:	f44e                	sd	s3,40(sp)
    80002ba0:	f052                	sd	s4,32(sp)
    80002ba2:	ec56                	sd	s5,24(sp)
    80002ba4:	e85a                	sd	s6,16(sp)
    80002ba6:	e45e                	sd	s7,8(sp)
    80002ba8:	0880                	addi	s0,sp,80
  for (int i = 0; i < NPRIO; i++){
    80002baa:	00013a17          	auipc	s4,0x13
    80002bae:	e3ea0a13          	addi	s4,s4,-450 # 800159e8 <prio>
    80002bb2:	4981                	li	s3,0
    struct list_proc* l = prio[i];
    printf("Priority queue for priority = %d: ", i);
    80002bb4:	00006b97          	auipc	s7,0x6
    80002bb8:	ab4b8b93          	addi	s7,s7,-1356 # 80008668 <userret+0x5d8>
    while(l){
      printf("%d ", l->p->pid);
    80002bbc:	00006917          	auipc	s2,0x6
    80002bc0:	ad490913          	addi	s2,s2,-1324 # 80008690 <userret+0x600>
      l = l->next;
    }
    printf("\n");
    80002bc4:	00006b17          	auipc	s6,0x6
    80002bc8:	a84b0b13          	addi	s6,s6,-1404 # 80008648 <userret+0x5b8>
  for (int i = 0; i < NPRIO; i++){
    80002bcc:	4aa9                	li	s5,10
    80002bce:	a811                	j	80002be2 <priodump+0x4e>
    printf("\n");
    80002bd0:	855a                	mv	a0,s6
    80002bd2:	ffffe097          	auipc	ra,0xffffe
    80002bd6:	d9a080e7          	jalr	-614(ra) # 8000096c <printf>
  for (int i = 0; i < NPRIO; i++){
    80002bda:	2985                	addiw	s3,s3,1
    80002bdc:	0a21                	addi	s4,s4,8
    80002bde:	03598563          	beq	s3,s5,80002c08 <priodump+0x74>
    struct list_proc* l = prio[i];
    80002be2:	000a3483          	ld	s1,0(s4)
    printf("Priority queue for priority = %d: ", i);
    80002be6:	85ce                	mv	a1,s3
    80002be8:	855e                	mv	a0,s7
    80002bea:	ffffe097          	auipc	ra,0xffffe
    80002bee:	d82080e7          	jalr	-638(ra) # 8000096c <printf>
    while(l){
    80002bf2:	dcf9                	beqz	s1,80002bd0 <priodump+0x3c>
      printf("%d ", l->p->pid);
    80002bf4:	609c                	ld	a5,0(s1)
    80002bf6:	4bac                	lw	a1,80(a5)
    80002bf8:	854a                	mv	a0,s2
    80002bfa:	ffffe097          	auipc	ra,0xffffe
    80002bfe:	d72080e7          	jalr	-654(ra) # 8000096c <printf>
      l = l->next;
    80002c02:	6484                	ld	s1,8(s1)
    while(l){
    80002c04:	f8e5                	bnez	s1,80002bf4 <priodump+0x60>
    80002c06:	b7e9                	j	80002bd0 <priodump+0x3c>
  }
}
    80002c08:	60a6                	ld	ra,72(sp)
    80002c0a:	6406                	ld	s0,64(sp)
    80002c0c:	74e2                	ld	s1,56(sp)
    80002c0e:	7942                	ld	s2,48(sp)
    80002c10:	79a2                	ld	s3,40(sp)
    80002c12:	7a02                	ld	s4,32(sp)
    80002c14:	6ae2                	ld	s5,24(sp)
    80002c16:	6b42                	ld	s6,16(sp)
    80002c18:	6ba2                	ld	s7,8(sp)
    80002c1a:	6161                	addi	sp,sp,80
    80002c1c:	8082                	ret

0000000080002c1e <swtch>:
    80002c1e:	00153023          	sd	ra,0(a0)
    80002c22:	00253423          	sd	sp,8(a0)
    80002c26:	e900                	sd	s0,16(a0)
    80002c28:	ed04                	sd	s1,24(a0)
    80002c2a:	03253023          	sd	s2,32(a0)
    80002c2e:	03353423          	sd	s3,40(a0)
    80002c32:	03453823          	sd	s4,48(a0)
    80002c36:	03553c23          	sd	s5,56(a0)
    80002c3a:	05653023          	sd	s6,64(a0)
    80002c3e:	05753423          	sd	s7,72(a0)
    80002c42:	05853823          	sd	s8,80(a0)
    80002c46:	05953c23          	sd	s9,88(a0)
    80002c4a:	07a53023          	sd	s10,96(a0)
    80002c4e:	07b53423          	sd	s11,104(a0)
    80002c52:	0005b083          	ld	ra,0(a1)
    80002c56:	0085b103          	ld	sp,8(a1)
    80002c5a:	6980                	ld	s0,16(a1)
    80002c5c:	6d84                	ld	s1,24(a1)
    80002c5e:	0205b903          	ld	s2,32(a1)
    80002c62:	0285b983          	ld	s3,40(a1)
    80002c66:	0305ba03          	ld	s4,48(a1)
    80002c6a:	0385ba83          	ld	s5,56(a1)
    80002c6e:	0405bb03          	ld	s6,64(a1)
    80002c72:	0485bb83          	ld	s7,72(a1)
    80002c76:	0505bc03          	ld	s8,80(a1)
    80002c7a:	0585bc83          	ld	s9,88(a1)
    80002c7e:	0605bd03          	ld	s10,96(a1)
    80002c82:	0685bd83          	ld	s11,104(a1)
    80002c86:	8082                	ret

0000000080002c88 <scause_desc>:
  }
}

static const char *
scause_desc(uint64 stval)
{
    80002c88:	1141                	addi	sp,sp,-16
    80002c8a:	e422                	sd	s0,8(sp)
    80002c8c:	0800                	addi	s0,sp,16
    80002c8e:	87aa                	mv	a5,a0
    [13] "load page fault",
    [14] "<reserved for future standard use>",
    [15] "store/AMO page fault",
  };
  uint64 interrupt = stval & 0x8000000000000000L;
  uint64 code = stval & ~0x8000000000000000L;
    80002c90:	00151713          	slli	a4,a0,0x1
    80002c94:	8305                	srli	a4,a4,0x1
  if (interrupt) {
    80002c96:	04054c63          	bltz	a0,80002cee <scause_desc+0x66>
      return intr_desc[code];
    } else {
      return "<reserved for platform use>";
    }
  } else {
    if (code < NELEM(nointr_desc)) {
    80002c9a:	5685                	li	a3,-31
    80002c9c:	8285                	srli	a3,a3,0x1
    80002c9e:	8ee9                	and	a3,a3,a0
    80002ca0:	caad                	beqz	a3,80002d12 <scause_desc+0x8a>
      return nointr_desc[code];
    } else if (code <= 23) {
    80002ca2:	46dd                	li	a3,23
      return "<reserved for future standard use>";
    80002ca4:	00006517          	auipc	a0,0x6
    80002ca8:	a1c50513          	addi	a0,a0,-1508 # 800086c0 <userret+0x630>
    } else if (code <= 23) {
    80002cac:	06e6f063          	bgeu	a3,a4,80002d0c <scause_desc+0x84>
    } else if (code <= 31) {
    80002cb0:	fc100693          	li	a3,-63
    80002cb4:	8285                	srli	a3,a3,0x1
    80002cb6:	8efd                	and	a3,a3,a5
      return "<reserved for custom use>";
